	.file	"bootloader-fw.c"
__SP_H__ = 0x3e
__SP_L__ = 0x3d
__SREG__ = 0x3f
__RAMPZ__ = 0x3b
__CCP__ = 0x34
__tmp_reg__ = 0
__zero_reg__ = 1
	.text
.Ltext0:
	.cfi_sections	.debug_frame
	.section	.text.sboxnet_debug_inc_recverrors,"ax",@progbits
	.type	sboxnet_debug_inc_recverrors, @function
sboxnet_debug_inc_recverrors:
.LFB40:
	.file 1 ".././sboxnet.c"
	.loc 1 251 0
	.cfi_startproc
/* prologue: function */
/* frame size = 0 */
/* stack size = 0 */
.L__stack_usage = 0
	.loc 1 252 0
	ldi r30,lo8(g_v+355)
	ldi r31,hi8(g_v+355)
	ld r24,Z
	ldd r25,Z+1
	adiw r24,1
	st Z,r24
	std Z+1,r25
	ret
	.cfi_endproc
.LFE40:
	.size	sboxnet_debug_inc_recverrors, .-sboxnet_debug_inc_recverrors
	.section	.text.sboxnet_debug_inc_recverr_dor,"ax",@progbits
	.type	sboxnet_debug_inc_recverr_dor, @function
sboxnet_debug_inc_recverr_dor:
.LFB41:
	.loc 1 255 0
	.cfi_startproc
/* prologue: function */
/* frame size = 0 */
/* stack size = 0 */
.L__stack_usage = 0
	.loc 1 256 0
	ldi r30,lo8(g_v+361)
	ldi r31,hi8(g_v+361)
	ld r24,Z
	ldd r25,Z+1
	adiw r24,1
	st Z,r24
	std Z+1,r25
	ret
	.cfi_endproc
.LFE41:
	.size	sboxnet_debug_inc_recverr_dor, .-sboxnet_debug_inc_recverr_dor
	.section	.text.sboxnet_debug_inc_recv_byte,"ax",@progbits
	.type	sboxnet_debug_inc_recv_byte, @function
sboxnet_debug_inc_recv_byte:
.LFB42:
	.loc 1 259 0
	.cfi_startproc
/* prologue: function */
/* frame size = 0 */
/* stack size = 0 */
.L__stack_usage = 0
	.loc 1 260 0
	ldi r30,lo8(g_v+333)
	ldi r31,hi8(g_v+333)
	ld r24,Z
	ldd r25,Z+1
	adiw r24,1
	st Z,r24
	std Z+1,r25
	ret
	.cfi_endproc
.LFE42:
	.size	sboxnet_debug_inc_recv_byte, .-sboxnet_debug_inc_recv_byte
	.section	.text.sboxnet_prandom,"ax",@progbits
	.type	sboxnet_prandom, @function
sboxnet_prandom:
.LFB46:
	.loc 1 287 0
	.cfi_startproc
/* prologue: function */
/* frame size = 0 */
/* stack size = 0 */
.L__stack_usage = 0
	.loc 1 288 0
	ldi r30,lo8(g_v)
	ldi r31,hi8(g_v)
	ldd r24,Z+36
.LVL0:
.LBB244:
.LBB245:
	.file 2 "C:\\Users\\balagi\\Documents\\modellbahn\\avr/avrutilslib/random.h"
	.loc 2 26 0
	mov r25,r24
	lsl r25
	eor r24,r25
.LVL1:
	.loc 2 27 0
	mov r25,r24
	lsr r25
	eor r24,r25
.LVL2:
	.loc 2 28 0
	mov r25,r24
	lsl r25
	lsl r25
	eor r24,r25
.LVL3:
.LBE245:
.LBE244:
	.loc 1 288 0
	std Z+36,r24
	.loc 1 290 0
	ret
	.cfi_endproc
.LFE46:
	.size	sboxnet_prandom, .-sboxnet_prandom
	.section	.text.sboxnet_rb_write,"ax",@progbits
	.type	sboxnet_rb_write, @function
sboxnet_rb_write:
.LFB52:
	.loc 1 347 0
	.cfi_startproc
.LVL4:
/* prologue: function */
/* frame size = 0 */
/* stack size = 0 */
.L__stack_usage = 0
	movw r30,r24
.LVL5:
	.loc 1 349 0
	ldd r25,Z+4
	ldd r18,Z+7
	ldd r24,Z+6
.LVL6:
	add r24,r25
	cp r24,r18
	brsh .L6
	.loc 1 350 0
	subi r25,lo8(-(1))
	std Z+4,r25
	.loc 1 351 0
	ldd r24,Z+3
	movw r26,r30
	add r26,r24
	adc r27,__zero_reg__
	adiw r26,8
	st X,r22
	.loc 1 352 0
	subi r24,lo8(-(1))
	.loc 1 353 0
	cp r24,r18
	brsh .L7
	.loc 1 352 0
	std Z+3,r24
	.loc 1 356 0
	ldi r24,lo8(1)
	ret
.L7:
	.loc 1 354 0
	std Z+3,__zero_reg__
	.loc 1 356 0
	ldi r24,lo8(1)
	ret
.L6:
	.loc 1 359 0
	ldi r30,lo8(g_v)
	ldi r31,hi8(g_v)
.LVL7:
	ldd r24,Z+29
	ori r24,lo8(4)
	std Z+29,r24
	.loc 1 361 0
	ldi r24,0
.LVL8:
	.loc 1 364 0
	ret
	.cfi_endproc
.LFE52:
	.size	sboxnet_rb_write, .-sboxnet_rb_write
	.section	.text.sboxnet_rb_read_commit,"ax",@progbits
	.type	sboxnet_rb_read_commit, @function
sboxnet_rb_read_commit:
.LFB55:
	.loc 1 380 0
	.cfi_startproc
.LVL9:
/* prologue: function */
/* frame size = 0 */
/* stack size = 0 */
.L__stack_usage = 0
	movw r30,r24
	.loc 1 382 0
	ldd r25,Z+6
	ldd r24,Z+1
.LVL10:
	cp r25,r24
	brsh .L10
	.loc 1 383 0
	ldi r26,lo8(g_v)
	ldi r27,hi8(g_v)
	adiw r26,29
	ld r24,X
	sbiw r26,29
	ori r24,lo8(2)
	adiw r26,29
	st X,r24
.L10:
	.loc 1 386 0
	ldd r24,Z+6
	ldd r25,Z+1
	sub r24,r25
	std Z+6,r24
	.loc 1 387 0
	std Z+1,__zero_reg__
	.loc 1 388 0
	ld r24,Z
	std Z+2,r24
	ret
	.cfi_endproc
.LFE55:
	.size	sboxnet_rb_read_commit, .-sboxnet_rb_read_commit
	.section	.text.sboxnet_rb_read,"ax",@progbits
	.type	sboxnet_rb_read, @function
sboxnet_rb_read:
.LFB57:
	.loc 1 400 0
	.cfi_startproc
.LVL11:
/* prologue: function */
/* frame size = 0 */
/* stack size = 0 */
.L__stack_usage = 0
	movw r30,r24
.LVL12:
	.loc 1 402 0
	ldd r24,Z+1
.LVL13:
	ldd r25,Z+6
	cp r24,r25
	brsh .L12
	.loc 1 403 0
	subi r24,lo8(-(1))
	std Z+1,r24
	.loc 1 404 0
	ld r25,Z
	movw r26,r30
	add r26,r25
	adc r27,__zero_reg__
	adiw r26,8
	ld r24,X
.LVL14:
	.loc 1 405 0
	subi r25,lo8(-(1))
	st Z,r25
	.loc 1 406 0
	ldd r18,Z+7
	cp r25,r18
	brlo .L13
	.loc 1 407 0
	st Z,__zero_reg__
	ret
.LVL15:
.L12:
	.loc 1 411 0
	ldi r30,lo8(g_v)
	ldi r31,hi8(g_v)
.LVL16:
	ldd r24,Z+29
	ori r24,lo8(2)
	std Z+29,r24
	.loc 1 401 0
	ldi r24,0
.LVL17:
.L13:
	.loc 1 415 0
	ret
	.cfi_endproc
.LFE57:
	.size	sboxnet_rb_read, .-sboxnet_rb_read
	.section	.text.sboxnet_all_sent,"ax",@progbits
	.type	sboxnet_all_sent, @function
sboxnet_all_sent:
.LFB75:
	.loc 1 1010 0
	.cfi_startproc
/* prologue: function */
/* frame size = 0 */
/* stack size = 0 */
.L__stack_usage = 0
	.loc 1 1011 0
	ldi r24,lo8(1)
	lds r25,g_v+191
	cpse r25,__zero_reg__
	ldi r24,0
.L15:
	.loc 1 1012 0
	ret
	.cfi_endproc
.LFE75:
	.size	sboxnet_all_sent, .-sboxnet_all_sent
	.section	.bldrapp,"ax",@progbits
	.type	crc_ccitt_update, @function
crc_ccitt_update:
.LFB85:
	.file 3 ".././bootloader-fw.c"
	.loc 3 559 0
	.cfi_startproc
.LVL18:
/* prologue: function */
/* frame size = 0 */
/* stack size = 0 */
.L__stack_usage = 0
.LBB246:
.LBB247:
	.file 4 "c:\\program files (x86)\\atmel\\studio\\7.0\\toolchain\\avr8\\avr8-gnu-toolchain\\avr\\include\\util\\crc16.h"
	.loc 4 257 0
/* #APP */
 ;  257 "c:\program files (x86)\atmel\studio\7.0\toolchain\avr8\avr8-gnu-toolchain\avr\include\util\crc16.h" 1
	eor    r24,r22
	mov    __tmp_reg__,r24
	swap   r24
	andi   r24,0xf0
	eor    r24,__tmp_reg__
	mov    __tmp_reg__,r25
	mov    r25,r24
	swap   r24
	andi   r24,0x0f
	eor    __tmp_reg__,r24
	lsr    r24
	eor    r25,r24
	eor    r24,r25
	lsl    r24
	lsl    r24
	lsl    r24
	eor    r24,__tmp_reg__
 ;  0 "" 2
.LVL19:
/* #NOAPP */
.LBE247:
.LBE246:
	.loc 3 561 0
	ret
	.cfi_endproc
.LFE85:
	.size	crc_ccitt_update, .-crc_ccitt_update
	.type	bldr_process_cmd_net_reset, @function
bldr_process_cmd_net_reset:
.LFB90:
	.loc 3 866 0
	.cfi_startproc
/* prologue: function */
/* frame size = 0 */
/* stack size = 0 */
.L__stack_usage = 0
.LBB248:
	.loc 3 867 0
	in r25,__SREG__
.LVL20:
.LBB249:
.LBB250:
	.file 5 "c:\\program files (x86)\\atmel\\studio\\7.0\\toolchain\\avr8\\avr8-gnu-toolchain\\avr\\include\\util\\atomic.h"
	.loc 5 50 0
/* #APP */
 ;  50 "c:\program files (x86)\atmel\studio\7.0\toolchain\avr8\avr8-gnu-toolchain\avr\include\util\atomic.h" 1
	cli
 ;  0 "" 2
.LVL21:
/* #NOAPP */
.LBE250:
.LBE249:
	.loc 3 868 0
	ldi r24,lo8(-1)
	sts g_v,r24
	.loc 3 869 0
	lds r24,g_dev_state
	ori r24,lo8(8)
	sts g_dev_state,r24
.LVL22:
.LBB251:
.LBB252:
	.loc 5 70 0
	out __SREG__,r25
	.loc 5 71 0
.LVL23:
	ret
.LBE252:
.LBE251:
.LBE248:
	.cfi_endproc
.LFE90:
	.size	bldr_process_cmd_net_reset, .-bldr_process_cmd_net_reset
	.type	bldr_random, @function
bldr_random:
.LFB94:
	.loc 3 1120 0
	.cfi_startproc
/* prologue: function */
/* frame size = 0 */
/* stack size = 0 */
.L__stack_usage = 0
.LBB253:
	.loc 3 1122 0
	in r20,__SREG__
.LVL24:
.LBB254:
.LBB255:
	.loc 5 50 0
/* #APP */
 ;  50 "c:\program files (x86)\atmel\studio\7.0\toolchain\avr8\avr8-gnu-toolchain\avr\include\util\atomic.h" 1
	cli
 ;  0 "" 2
.LVL25:
/* #NOAPP */
.LBE255:
.LBE254:
	.loc 3 1123 0
	ldi r30,lo8(g_v)
	ldi r31,hi8(g_v)
	ldd r24,Z+24
	ldd r25,Z+25
.LVL26:
.LBB256:
.LBB257:
	.loc 2 33 0
	movw r18,r24
	lsl r18
	rol r19
	eor r24,r18
	eor r25,r19
.LVL27:
	.loc 2 34 0
	movw r18,r24
	lsr r19
	ror r18
	swap r19
	swap r18
	andi r18,0x0f
	eor r18,r19
	andi r19,0x0f
	eor r18,r19
	eor r24,r18
	eor r25,r19
.LVL28:
	.loc 2 35 0
	movw r18,r24
	lsl r18
	rol r19
	lsl r18
	rol r19
	eor r24,r18
	eor r25,r19
.LVL29:
.LBE257:
.LBE256:
	.loc 3 1124 0
	std Z+24,r24
	std Z+25,r25
.LVL30:
.LBB258:
.LBB259:
	.loc 5 70 0
	out __SREG__,r20
	.loc 5 71 0
.LVL31:
.LBE259:
.LBE258:
.LBE253:
	.loc 3 1127 0
	ret
	.cfi_endproc
.LFE94:
	.size	bldr_random, .-bldr_random
	.section	.bldrvec,"ax",@progbits
	.type	bldr_vector_table, @function
bldr_vector_table:
.LFB36:
	.loc 3 154 0
	.cfi_startproc
/* prologue: naked */
/* frame size = 0 */
/* stack size = 0 */
.L__stack_usage = 0
	.loc 3 155 0
/* #APP */
 ;  155 ".././bootloader-fw.c" 1
	  .globl bldr_activate
bldr_activate:          jmp _bldr_activate
  .globl bldr_task
bldr_task:              jmp _bldr_task
  .globl bldr_process_basic_msg
bldr_process_basic_msg: jmp _bldr_process_basic_msg
  .globl bldr_reg_read
bldr_reg_read:          jmp _bldr_reg_read
  .globl sbn_init
sbn_init:               jmp sboxnet_init
  .globl sbn_receive_msg
sbn_receive_msg:        jmp sboxnet_receive_msg
  .globl sbn_send_msg
sbn_send_msg:           jmp sboxnet_send_msg
  .globl sbn_all_sent
sbn_all_sent:           jmp sboxnet_all_sent
  jmp __bldr_init
  jmp __bldr_init
  jmp __bldr_init
  jmp __bldr_init
  jmp __bldr_init
  jmp __bldr_init
  jmp __bldr_init
  jmp __bldr_init

 ;  0 "" 2
/* epilogue start */
	.loc 3 181 0
/* #NOAPP */
	.cfi_endproc
.LFE36:
	.size	bldr_vector_table, .-bldr_vector_table
	.section	.bldrfwheader,"ax",@progbits
	.type	bldr_firmware_header, @function
bldr_firmware_header:
.LFB37:
	.loc 3 185 0
	.cfi_startproc
/* prologue: naked */
/* frame size = 0 */
/* stack size = 0 */
.L__stack_usage = 0
	.loc 3 186 0
/* #APP */
 ;  186 ".././bootloader-fw.c" 1
	.long 1114530387
.word 0
.word 0
.word 4
.word 4
.zero 20

 ;  0 "" 2
/* epilogue start */
	.loc 3 187 0
/* #NOAPP */
	.cfi_endproc
.LFE37:
	.size	bldr_firmware_header, .-bldr_firmware_header
	.section	.text.sboxnet_receiver_enable,"ax",@progbits
	.type	sboxnet_receiver_enable, @function
sboxnet_receiver_enable:
.LFB60:
	.loc 1 442 0
	.cfi_startproc
/* prologue: function */
/* frame size = 0 */
/* stack size = 0 */
.L__stack_usage = 0
	.loc 1 444 0
	lds r24,2211
	.loc 1 444 0
	andi r24,lo8(-49)
	ori r24,lo8(32)
	ldi r30,lo8(-96)
	ldi r31,lo8(10)
	std Z+3,r24
	.loc 1 446 0
	ldd r24,Z+4
	ori r24,lo8(18)
	std Z+4,r24
	ret
	.cfi_endproc
.LFE60:
	.size	sboxnet_receiver_enable, .-sboxnet_receiver_enable
	.section	.text.sboxnet_init,"ax",@progbits
	.type	sboxnet_init, @function
sboxnet_init:
.LFB61:
	.loc 1 459 0
	.cfi_startproc
/* prologue: function */
/* frame size = 0 */
/* stack size = 0 */
.L__stack_usage = 0
.LVL32:
	.loc 1 463 0
	ldi r24,lo8(87)
	ldi r25,lo8(1)
	ldi r30,lo8(g_v+28)
	ldi r31,hi8(g_v+28)
.LVL33:
	movw r26,r30
	movw r18,r24
	0:
	st X+,__zero_reg__
	subi r18,1
	sbci r19,0
	brne 0b
	.loc 1 467 0
	ldi r30,lo8(g_v)
	ldi r31,hi8(g_v)
.LVL34:
	ldd r24,Z+24
	std Z+36,r24
	.loc 1 469 0
	ldi r24,lo8(25)
	std Z+30,r24
.LVL35:
.LBB266:
.LBB267:
	.loc 1 307 0
	ldi r24,lo8(-116)
	std Z+44,r24
.LVL36:
.LBE267:
.LBE266:
.LBB268:
.LBB269:
	sts g_v+192,r24
.LVL37:
.LBE269:
.LBE268:
	.loc 1 477 0
	ldi r30,lo8(-128)
	ldi r31,lo8(6)
	ldi r25,lo8(4)
	std Z+2,r25
.LVL38:
.LBB270:
.LBB271:
	.file 6 "C:\\Users\\balagi\\Documents\\modellbahn\\avr/avrutilslib/defines.h"
	.loc 6 71 0
	ldd r24,Z+18
	andi r24,lo8(-57)
	ori r24,lo8(24)
	std Z+18,r24
.LVL39:
.LBE271:
.LBE270:
	.loc 1 482 0
	ldi r24,lo8(8)
	std Z+5,r24
	.loc 1 483 0
	std Z+1,r24
	.loc 1 488 0
	ldi r26,0
	ldi r27,lo8(10)
	adiw r26,1
	st X,__zero_reg__
	sbiw r26,1
	.loc 1 490 0
	adiw r26,3
	st X,__zero_reg__
	sbiw r26,3
	.loc 1 492 0
	adiw r26,4
	st X,__zero_reg__
	sbiw r26,4
	.loc 1 494 0
	ldi r18,lo8(2)
	adiw r26,6
	st X,r18
	sbiw r26,6
	.loc 1 496 0
	adiw r26,7
	st X,__zero_reg__
	sbiw r26,7
	.loc 1 498 0
	ldi r24,lo8(-1)
	adiw r26,12
	st X,r24
	sbiw r26,12
	.loc 1 501 0
	ldi r20,lo8(-1)
	ldi r21,lo8(63)
	adiw r26,38
	st X+,r20
	st X,r21
	sbiw r26,38+1
	.loc 1 504 0
	st X,r25
	.loc 1 510 0
	ldd r24,Z+9
	andi r24,lo8(-4)
	std Z+9,r24
	.loc 1 512 0
	std Z+10,r25
	.loc 1 514 0
	ldi r24,lo8(1)
	std Z+12,r24
	.loc 1 519 0
	ldi r30,lo8(-96)
	ldi r31,lo8(10)
	std Z+7,__zero_reg__
	.loc 1 521 0
	ldi r24,lo8(7)
	std Z+6,r24
	.loc 1 524 0
	ldi r24,lo8(64)
	std Z+1,r24
	.loc 1 526 0
	std Z+3,__zero_reg__
	.loc 1 528 0
	std Z+4,r18
	.loc 1 530 0
	ldi r24,lo8(39)
	std Z+5,r24
	.loc 1 532 0
	ldd r24,Z+4
	ori r24,lo8(8)
	std Z+4,r24
	.loc 1 534 0
	call sboxnet_receiver_enable
.LVL40:
	ret
	.cfi_endproc
.LFE61:
	.size	sboxnet_init, .-sboxnet_init
	.section	.text.sboxnet_set_timer,"ax",@progbits
.global	sboxnet_set_timer
	.type	sboxnet_set_timer, @function
sboxnet_set_timer:
.LFB62:
	.loc 1 545 0
	.cfi_startproc
.LVL41:
/* prologue: function */
/* frame size = 0 */
/* stack size = 0 */
.L__stack_usage = 0
.LBB272:
	.loc 1 549 0
	in r18,__SREG__
.LVL42:
.LBB273:
.LBB274:
	.loc 5 50 0
/* #APP */
 ;  50 "c:\program files (x86)\atmel\studio\7.0\toolchain\avr8\avr8-gnu-toolchain\avr\include\util\atomic.h" 1
	cli
 ;  0 "" 2
.LVL43:
/* #NOAPP */
.LBE274:
.LBE273:
	.loc 1 550 0
	ldi r30,0
	ldi r31,lo8(10)
	ldd r20,Z+32
	ldd r21,Z+33
.LVL44:
	.loc 1 552 0
	add r24,r20
	adc r25,r21
.LVL45:
	andi r25,63
.LVL46:
	.loc 1 554 0
	std Z+56,r24
	std Z+57,r25
	.loc 1 556 0
	ldi r24,lo8(16)
.LVL47:
	std Z+12,r24
.LVL48:
	.loc 1 558 0
	ldd r24,Z+7
	.loc 1 558 0
	andi r24,lo8(-4)
	ori r24,lo8(2)
	std Z+7,r24
.LVL49:
.LBB275:
.LBB276:
	.loc 5 70 0
	out __SREG__,r18
	.loc 5 71 0
.LVL50:
	ret
.LBE276:
.LBE275:
.LBE272:
	.cfi_endproc
.LFE62:
	.size	sboxnet_set_timer, .-sboxnet_set_timer
	.section	.text.sboxnet_set_backoff_with_offset,"ax",@progbits
.global	sboxnet_set_backoff_with_offset
	.type	sboxnet_set_backoff_with_offset, @function
sboxnet_set_backoff_with_offset:
.LFB65:
	.loc 1 586 0
	.cfi_startproc
.LVL51:
/* prologue: function */
/* frame size = 0 */
/* stack size = 0 */
.L__stack_usage = 0
.LBB277:
.LBB278:
	.loc 1 567 0
	ldi r18,lo8(1)
	sts 1676,r18
.LBE278:
.LBE277:
	.loc 1 591 0
	sts g_v+28,r18
	.loc 1 594 0
	subi r24,32
	sbci r25,-2
.LVL52:
	call sboxnet_set_timer
.LVL53:
	ret
	.cfi_endproc
.LFE65:
	.size	sboxnet_set_backoff_with_offset, .-sboxnet_set_backoff_with_offset
	.section	.text.sboxnet_intr_usart_rx,"ax",@progbits
.global	sboxnet_intr_usart_rx
	.type	sboxnet_intr_usart_rx, @function
sboxnet_intr_usart_rx:
.LFB66:
	.loc 1 603 0
	.cfi_startproc
	push r12
.LCFI0:
	.cfi_def_cfa_offset 3
	.cfi_offset 12, -2
	push r13
.LCFI1:
	.cfi_def_cfa_offset 4
	.cfi_offset 13, -3
	push r14
.LCFI2:
	.cfi_def_cfa_offset 5
	.cfi_offset 14, -4
	push r15
.LCFI3:
	.cfi_def_cfa_offset 6
	.cfi_offset 15, -5
	push r16
.LCFI4:
	.cfi_def_cfa_offset 7
	.cfi_offset 16, -6
	push r17
.LCFI5:
	.cfi_def_cfa_offset 8
	.cfi_offset 17, -7
	push r28
.LCFI6:
	.cfi_def_cfa_offset 9
	.cfi_offset 28, -8
	push r29
.LCFI7:
	.cfi_def_cfa_offset 10
	.cfi_offset 29, -9
	push __zero_reg__
.LCFI8:
	.cfi_def_cfa_offset 11
	in r28,__SP_L__
	in r29,__SP_H__
.LCFI9:
	.cfi_def_cfa_register 28
/* prologue: function */
/* frame size = 1 */
/* stack size = 9 */
.L__stack_usage = 9
.LVL54:
	.loc 1 610 0
	ldi r16,lo8(g_v+28)
	ldi r17,hi8(g_v+28)
.LVL55:
.LVL56:
	.loc 1 613 0
	ldi r30,lo8(-96)
	ldi r31,lo8(10)
	ldd r15,Z+1
	.loc 1 613 0
	std Y+1,r15
	.loc 1 615 0
	ldd r25,Y+1
.LVL57:
	.loc 1 617 0
	ld r14,Z
.LVL58:
	.loc 1 619 0
	mov r24,r15
	andi r24,lo8(28)
	std Y+1,r24
	.loc 1 621 0
	tst r24
	breq .L26
	.loc 1 623 0
	call sboxnet_debug_inc_recverrors
.LVL59:
	.loc 1 625 0
	sbrs r15,4
	rjmp .L27
	.loc 1 625 0 discriminator 1
	movw r30,r16
	subi r30,-73
	sbci r31,-2
	ld r24,Z
	ldd r25,Z+1
	adiw r24,1
	st Z,r24
	std Z+1,r25
.L27:
	.loc 1 626 0
	sbrc r15,3
	.loc 1 626 0 discriminator 1
	call sboxnet_debug_inc_recverr_dor
.LVL60:
.L28:
	.loc 1 627 0
	sbrs r15,2
	rjmp .L29
	.loc 1 627 0 discriminator 1
	movw r30,r16
	subi r30,-75
	sbci r31,-2
	ld r24,Z
	ldd r25,Z+1
	adiw r24,1
	st Z,r24
	std Z+1,r25
	rjmp .L29
.LVL61:
.L26:
	.loc 1 631 0
	sbrs r25,0
	rjmp .L30
	.loc 1 632 0
	movw r30,r16
	ldd r24,Z+13
	tst r24
	breq .L31
	.loc 1 633 0
	subi r30,-79
	sbci r31,-2
	ld r24,Z
	ldd r25,Z+1
	adiw r24,1
	st Z,r24
	std Z+1,r25
	.loc 1 634 0
	call sboxnet_debug_inc_recverrors
.LVL62:
.LBB294:
.LBB295:
	.loc 1 341 0
	movw r30,r16
	std Z+13,__zero_reg__
	.loc 1 342 0
	ldd r24,Z+14
	std Z+12,r24
.LVL63:
.L31:
.LBE295:
.LBE294:
	.loc 1 638 0
	lds r24,g_v
	cp r14,r24
	breq .L32
	.loc 1 638 0 is_stmt 0 discriminator 1
	ldi r31,lo8(-1)
	cpse r14,r31
	rjmp .L29
.L32:
	.loc 1 644 0 is_stmt 1
	ldi r30,lo8(-96)
	ldi r31,lo8(10)
	ldd r24,Z+4
	andi r24,lo8(-3)
	std Z+4,r24
	.loc 1 646 0
	movw r12,r16
	ldi r24,9
	add r12,r24
	adc r13,__zero_reg__
	ldi r22,0
	movw r24,r12
	call sboxnet_rb_write
.LVL64:
	tst r24
	breq .L33
	.loc 1 650 0
	mov r22,r14
	movw r24,r12
	call sboxnet_rb_write
.LVL65:
	tst r24
	breq .L33
	.loc 1 651 0
	call sboxnet_debug_inc_recv_byte
.LVL66:
	.loc 1 653 0
	ldi r24,lo8(6)
	movw r30,r16
	std Z+7,r24
	rjmp .L25
.L33:
	.loc 1 657 0
	call sboxnet_debug_inc_recverr_dor
.LVL67:
	.loc 1 658 0
	rjmp .L35
.LVL68:
.L30:
.LBB296:
.LBB297:
.LBB298:
	.loc 1 375 0
	movw r30,r16
	ldd r24,Z+13
.LVL69:
.LBE298:
.LBE297:
	.loc 1 671 0
	ldd r25,Z+7
.LVL70:
	cp r25,r24
	brsh .L36
	.loc 1 672 0
	subi r30,-81
	sbci r31,-2
	ld r24,Z
	ldd r25,Z+1
	adiw r24,1
	st Z,r24
	std Z+1,r25
	.loc 1 673 0
	rjmp .L35
.L36:
	.loc 1 676 0
	cpi r24,lo8(4)
	brne .L37
	.loc 1 677 0
	mov r24,r14
	andi r24,lo8(63)
	subi r24,lo8(-(6))
	movw r30,r16
	std Z+7,r24
.L37:
	.loc 1 679 0
	mov r22,r14
	movw r24,r16
	adiw r24,9
	call sboxnet_rb_write
.LVL71:
	cpse r24,__zero_reg__
	rjmp .L38
	.loc 1 680 0
	call sboxnet_debug_inc_recverr_dor
.LVL72:
	.loc 1 681 0
	rjmp .L35
.L38:
	.loc 1 683 0
	call sboxnet_debug_inc_recv_byte
.LVL73:
	.loc 1 684 0
	movw r30,r16
	ldd r20,Z+7
	ldd r18,Z+13
	ldi r19,0
	mov r24,r20
	ldi r25,0
	adiw r24,1
	cp r18,r24
	cpc r19,r25
	brne .L25
.LVL74:
.LBB299:
.LBB300:
	.loc 1 369 0
	ldd r24,Z+14
	add r30,r24
	adc r31,__zero_reg__
	std Z+17,r20
.LVL75:
.LBE300:
.LBE299:
	.loc 1 686 0
	movw r30,r16
	std Z+7,__zero_reg__
	.loc 1 687 0
	ldi r30,lo8(-96)
	ldi r31,lo8(10)
	ldd r24,Z+4
	ori r24,lo8(2)
	std Z+4,r24
.LVL76:
.LBB301:
.LBB302:
	.loc 1 326 0
	movw r30,r16
	ldd r18,Z+15
	ldd r24,Z+13
	ldi r25,0
	add r24,r18
	adc r25,__zero_reg__
	ldd r18,Z+16
	ldi r19,0
	cp r18,r24
	cpc r19,r25
	brge .L39
	.loc 1 327 0
	ldi r30,lo8(g_v)
	ldi r31,hi8(g_v)
	ldd r24,Z+29
	ori r24,lo8(4)
	std Z+29,r24
.L39:
	.loc 1 331 0
	movw r30,r16
	ldd r25,Z+15
	ldd r24,Z+13
	add r24,r25
	std Z+15,r24
	.loc 1 333 0
	std Z+13,__zero_reg__
	.loc 1 335 0
	ldd r24,Z+12
	std Z+14,r24
.LVL77:
.LBE302:
.LBE301:
	.loc 1 689 0
	ldi r30,lo8(g_v+335)
	ldi r31,hi8(g_v+335)
	ld r24,Z
	ldd r25,Z+1
	adiw r24,1
	st Z,r24
	std Z+1,r25
	rjmp .L25
.L35:
.LBE296:
	.loc 1 696 0
	call sboxnet_debug_inc_recverrors
.LVL78:
.L29:
	.loc 1 698 0 discriminator 1
	movw r30,r16
	std Z+7,__zero_reg__
	.loc 1 699 0 discriminator 1
	ldi r30,lo8(-96)
	ldi r31,lo8(10)
	ldd r24,Z+4
	ori r24,lo8(2)
	std Z+4,r24
.LVL79:
.LBB303:
.LBB304:
	.loc 1 341 0 discriminator 1
	movw r30,r16
	std Z+13,__zero_reg__
	.loc 1 342 0 discriminator 1
	ldd r24,Z+14
	std Z+12,r24
.LVL80:
.L25:
/* epilogue start */
.LBE304:
.LBE303:
	.loc 1 702 0
	pop __tmp_reg__
	pop r29
	pop r28
	pop r17
	pop r16
.LVL81:
	pop r15
	pop r14
.LVL82:
	pop r13
	pop r12
	ret
	.cfi_endproc
.LFE66:
	.size	sboxnet_intr_usart_rx, .-sboxnet_intr_usart_rx
	.section	.text.sboxnet_check_try_transmit,"ax",@progbits
.global	sboxnet_check_try_transmit
	.type	sboxnet_check_try_transmit, @function
sboxnet_check_try_transmit:
.LFB67:
	.loc 1 708 0
	.cfi_startproc
	push r28
.LCFI10:
	.cfi_def_cfa_offset 3
	.cfi_offset 28, -2
	push r29
.LCFI11:
	.cfi_def_cfa_offset 4
	.cfi_offset 29, -3
/* prologue: function */
/* frame size = 0 */
/* stack size = 2 */
.L__stack_usage = 2
.LVL83:
	.loc 1 711 0
	ldi r28,lo8(g_v+28)
	ldi r29,hi8(g_v+28)
.LVL84:
.LVL85:
	.loc 1 713 0
	ldd r24,Y+4
	cpse r24,__zero_reg__
	rjmp .L42
.LBB305:
.LBB306:
	.loc 1 313 0 discriminator 1
	movw r30,r28
	subi r30,99
	sbci r31,-1
.LBE306:
.LBE305:
	.loc 1 713 0 discriminator 1
	ldd r24,Z+6
	cpi r24,lo8(7)
	brlo .L41
	.loc 1 714 0
	std Y+3,__zero_reg__
	.loc 1 715 0
	movw r24,r30
	call sboxnet_rb_read
.LVL86:
	std Y+4,r24
	.loc 1 717 0
	tst r24
	breq .L41
.L42:
	.loc 1 717 0 is_stmt 0 discriminator 1
	ldd r24,Y+3
	cpse r24,__zero_reg__
	rjmp .L41
	.loc 1 718 0 is_stmt 1
	ld r24,Y
	cpse r24,__zero_reg__
	rjmp .L41
.LBB307:
	.loc 1 719 0
	call sboxnet_prandom
.LVL87:
	.loc 1 720 0
	ldd r18,Y+2
	ldi r19,0
	subi r18,-8
	sbci r19,-1
	lsl r18
	rol r19
	lsl r18
	rol r19
	lsl r18
	rol r19
	andi r24,lo8(127)
.LVL88:
	movw r20,r18
	add r20,r24
	adc r21,__zero_reg__
	movw r24,r20
	call sboxnet_set_backoff_with_offset
.LVL89:
.L41:
/* epilogue start */
.LBE307:
	.loc 1 723 0
	pop r29
	pop r28
.LVL90:
	ret
	.cfi_endproc
.LFE67:
	.size	sboxnet_check_try_transmit, .-sboxnet_check_try_transmit
	.section	.text.sboxnet_intr_usart_tx,"ax",@progbits
.global	sboxnet_intr_usart_tx
	.type	sboxnet_intr_usart_tx, @function
sboxnet_intr_usart_tx:
.LFB68:
	.loc 1 728 0
	.cfi_startproc
	push r16
.LCFI12:
	.cfi_def_cfa_offset 3
	.cfi_offset 16, -2
	push r17
.LCFI13:
	.cfi_def_cfa_offset 4
	.cfi_offset 17, -3
	push r28
.LCFI14:
	.cfi_def_cfa_offset 5
	.cfi_offset 28, -4
	push r29
.LCFI15:
	.cfi_def_cfa_offset 6
	.cfi_offset 29, -5
/* prologue: function */
/* frame size = 0 */
/* stack size = 4 */
.L__stack_usage = 4
.LVL91:
	.loc 1 731 0
	ldi r28,lo8(g_v+28)
	ldi r29,hi8(g_v+28)
.LVL92:
.LVL93:
	.loc 1 734 0
	ldi r30,lo8(-96)
	ldi r31,lo8(10)
	ldd r24,Z+1
.LVL94:
	.loc 1 736 0
	mov r20,r24
	andi r20,lo8(20)
.LVL95:
	.loc 1 737 0
	ld r19,Z
	ldd r18,Y+5
.LVL96:
	.loc 1 738 0
	tst r24
	brge .L45
	.loc 1 738 0 is_stmt 0 discriminator 1
	cpse r20,__zero_reg__
	rjmp .L46
	.loc 1 738 0 discriminator 2
	cpse r19,r18
	rjmp .L47
	rjmp .L60
.L45:
	.loc 1 739 0 is_stmt 1 discriminator 1
	movw r30,r28
	subi r30,-63
	sbci r31,-2
	ld r24,Z
	ldd r25,Z+1
.LVL97:
	adiw r24,1
	st Z,r24
	std Z+1,r25
	.loc 1 740 0 discriminator 1
	tst r20
	breq .L47
.L46:
	movw r30,r28
	subi r30,-65
	sbci r31,-2
	ld r24,Z
	ldd r25,Z+1
	adiw r24,1
	st Z,r24
	std Z+1,r25
.L47:
	.loc 1 741 0
	cp r19,r18
	breq .L49
	.loc 1 741 0 is_stmt 0 discriminator 1
	movw r30,r28
	subi r30,-67
	sbci r31,-2
	ld r24,Z
	ldd r25,Z+1
	adiw r24,1
	st Z,r24
	std Z+1,r25
.L49:
	.loc 1 743 0 is_stmt 1
	ldi r24,lo8(8)
	sts 1670,r24
	.loc 1 748 0
	ldi r24,lo8(2)
	st Y,r24
	.loc 1 749 0
	movw r30,r28
	subi r30,-61
	sbci r31,-2
	ld r24,Z
	ldd r25,Z+1
	adiw r24,1
	st Z,r24
	std Z+1,r25
	.loc 1 750 0
	ldd r24,Y+2
	cpse r24,__zero_reg__
	rjmp .L50
	.loc 1 756 0
	ldd r25,Y+3
	ldd r24,Y+4
	cp r25,r24
	brlo .L51
	rjmp .L52
.L50:
	.loc 1 751 0
	subi r24,lo8(-(-1))
	std Y+2,r24
.LVL98:
.LBB311:
.LBB312:
	.loc 1 394 0
	movw r30,r28
	subi r30,99
	sbci r31,-1
.LVL99:
	std Z+1,__zero_reg__
	.loc 1 395 0
	ldd r24,Z+2
	st Z,r24
.LVL100:
.LBE312:
.LBE311:
	.loc 1 754 0
	subi r30,88
	sbci r31,-1
	ld r24,Z
	ldd r25,Z+1
	adiw r24,1
	st Z,r24
	std Z+1,r25
	rjmp .L53
.L51:
	.loc 1 757 0
	movw r16,r28
	subi r16,99
	sbci r17,-1
.LVL101:
.L58:
	movw r24,r16
	call sboxnet_rb_read
.LVL102:
	.loc 1 758 0
	ldd r24,Y+3
	subi r24,lo8(-(1))
	std Y+3,r24
	.loc 1 756 0
	ldd r25,Y+4
	cp r24,r25
	brlo .L58
.L52:
	.loc 1 760 0
	std Y+4,__zero_reg__
	std Y+3,__zero_reg__
	.loc 1 761 0
	ldi r24,lo8(25)
	std Y+2,r24
	.loc 1 762 0
	movw r24,r28
	subi r24,99
	sbci r25,-1
	call sboxnet_rb_read_commit
.LVL103:
	.loc 1 763 0
	movw r30,r28
	subi r30,-85
	sbci r31,-2
	ld r24,Z
	ldd r25,Z+1
	adiw r24,1
	st Z,r24
	std Z+1,r25
.L53:
	.loc 1 765 0
	std Y+4,__zero_reg__
	std Y+3,__zero_reg__
	.loc 1 767 0
	ldi r24,0
	ldi r25,lo8(2)
	call sboxnet_set_timer
.LVL104:
	.loc 1 768 0
	rjmp .L44
.LVL105:
.L60:
	.loc 1 771 0
	ldi r30,lo8(-96)
	ldi r31,lo8(10)
	ldd r24,Z+4
.LVL106:
	andi r24,lo8(-17)
	std Z+4,r24
	.loc 1 772 0
	ldd r24,Z+3
	andi r24,lo8(-49)
	std Z+3,r24
	.loc 1 773 0
	ldd r24,Z+4
	ori r24,lo8(16)
	std Z+4,r24
	.loc 1 776 0
	ldd r25,Y+3
	ldd r24,Y+4
	cp r25,r24
	brsh .L55
.LBB313:
	.loc 1 777 0
	movw r24,r28
	subi r24,99
	sbci r25,-1
	call sboxnet_rb_read
.LVL107:
	.loc 1 778 0
	ldd r25,Y+3
	subi r25,lo8(-(1))
	std Y+3,r25
	.loc 1 779 0
	std Y+5,r24
	.loc 1 781 0
	ldi r30,lo8(-96)
	ldi r31,lo8(10)
	ldd r25,Z+4
	andi r25,lo8(-2)
	std Z+4,r25
	.loc 1 782 0
	st Z,r24
.LBE313:
	rjmp .L56
.LVL108:
.L55:
	.loc 1 784 0
	ldi r30,lo8(-96)
	ldi r31,lo8(10)
	ldd r24,Z+3
	andi r24,lo8(-13)
	std Z+3,r24
	.loc 1 786 0
	std Y+4,__zero_reg__
	.loc 1 787 0
	std Y+3,__zero_reg__
	.loc 1 788 0
	movw r24,r28
	subi r24,99
	sbci r25,-1
	call sboxnet_rb_read_commit
.LVL109:
	.loc 1 789 0
	ldi r30,lo8(g_v+343)
	ldi r31,hi8(g_v+343)
	ld r24,Z
	ldd r25,Z+1
	adiw r24,1
	st Z,r24
	std Z+1,r25
	.loc 1 791 0
	call sboxnet_receiver_enable
.LVL110:
	.loc 1 792 0
	ld r24,Y
	cpi r24,lo8(3)
	brne .L57
	.loc 1 793 0
	st Y,__zero_reg__
.L57:
	.loc 1 795 0
	ldi r24,lo8(25)
	std Y+2,r24
	.loc 1 796 0
	call sboxnet_check_try_transmit
.LVL111:
.L56:
	.loc 1 798 0
	subi r28,-55
	sbci r29,-2
.LVL112:
	ld r24,Y
	ldd r25,Y+1
	adiw r24,1
	st Y,r24
	std Y+1,r25
.LVL113:
.L44:
/* epilogue start */
	.loc 1 799 0
	pop r29
	pop r28
	pop r17
	pop r16
	ret
	.cfi_endproc
.LFE68:
	.size	sboxnet_intr_usart_tx, .-sboxnet_intr_usart_tx
	.section	.text.__vector_58,"ax",@progbits
.global	__vector_58
	.type	__vector_58, @function
__vector_58:
.LFB69:
	.loc 1 801 0
	.cfi_startproc
	push r1
.LCFI16:
	.cfi_def_cfa_offset 3
	.cfi_offset 1, -2
	push r0
.LCFI17:
	.cfi_def_cfa_offset 4
	.cfi_offset 0, -3
	in r0,__SREG__
	push r0
	clr __zero_reg__
	in r0,__RAMPZ__
	push r0
	push r18
.LCFI18:
	.cfi_def_cfa_offset 5
	.cfi_offset 18, -4
	push r19
.LCFI19:
	.cfi_def_cfa_offset 6
	.cfi_offset 19, -5
	push r20
.LCFI20:
	.cfi_def_cfa_offset 7
	.cfi_offset 20, -6
	push r21
.LCFI21:
	.cfi_def_cfa_offset 8
	.cfi_offset 21, -7
	push r22
.LCFI22:
	.cfi_def_cfa_offset 9
	.cfi_offset 22, -8
	push r23
.LCFI23:
	.cfi_def_cfa_offset 10
	.cfi_offset 23, -9
	push r24
.LCFI24:
	.cfi_def_cfa_offset 11
	.cfi_offset 24, -10
	push r25
.LCFI25:
	.cfi_def_cfa_offset 12
	.cfi_offset 25, -11
	push r26
.LCFI26:
	.cfi_def_cfa_offset 13
	.cfi_offset 26, -12
	push r27
.LCFI27:
	.cfi_def_cfa_offset 14
	.cfi_offset 27, -13
	push r30
.LCFI28:
	.cfi_def_cfa_offset 15
	.cfi_offset 30, -14
	push r31
.LCFI29:
	.cfi_def_cfa_offset 16
	.cfi_offset 31, -15
/* prologue: Signal */
/* frame size = 0 */
/* stack size = 16 */
.L__stack_usage = 16
	.loc 1 802 0
	call sboxnet_intr_usart_rx
.LVL114:
/* epilogue start */
	.loc 1 803 0
	pop r31
	pop r30
	pop r27
	pop r26
	pop r25
	pop r24
	pop r23
	pop r22
	pop r21
	pop r20
	pop r19
	pop r18
	pop r0
	out __RAMPZ__,r0
	pop r0
	out __SREG__,r0
	pop r0
	pop r1
	reti
	.cfi_endproc
.LFE69:
	.size	__vector_58, .-__vector_58
	.section	.text.__vector_60,"ax",@progbits
.global	__vector_60
	.type	__vector_60, @function
__vector_60:
.LFB70:
	.loc 1 805 0
	.cfi_startproc
	push r1
.LCFI30:
	.cfi_def_cfa_offset 3
	.cfi_offset 1, -2
	push r0
.LCFI31:
	.cfi_def_cfa_offset 4
	.cfi_offset 0, -3
	in r0,__SREG__
	push r0
	clr __zero_reg__
	in r0,__RAMPZ__
	push r0
	push r18
.LCFI32:
	.cfi_def_cfa_offset 5
	.cfi_offset 18, -4
	push r19
.LCFI33:
	.cfi_def_cfa_offset 6
	.cfi_offset 19, -5
	push r20
.LCFI34:
	.cfi_def_cfa_offset 7
	.cfi_offset 20, -6
	push r21
.LCFI35:
	.cfi_def_cfa_offset 8
	.cfi_offset 21, -7
	push r22
.LCFI36:
	.cfi_def_cfa_offset 9
	.cfi_offset 22, -8
	push r23
.LCFI37:
	.cfi_def_cfa_offset 10
	.cfi_offset 23, -9
	push r24
.LCFI38:
	.cfi_def_cfa_offset 11
	.cfi_offset 24, -10
	push r25
.LCFI39:
	.cfi_def_cfa_offset 12
	.cfi_offset 25, -11
	push r26
.LCFI40:
	.cfi_def_cfa_offset 13
	.cfi_offset 26, -12
	push r27
.LCFI41:
	.cfi_def_cfa_offset 14
	.cfi_offset 27, -13
	push r30
.LCFI42:
	.cfi_def_cfa_offset 15
	.cfi_offset 30, -14
	push r31
.LCFI43:
	.cfi_def_cfa_offset 16
	.cfi_offset 31, -15
/* prologue: Signal */
/* frame size = 0 */
/* stack size = 16 */
.L__stack_usage = 16
	.loc 1 806 0
	call sboxnet_intr_usart_tx
.LVL115:
/* epilogue start */
	.loc 1 807 0
	pop r31
	pop r30
	pop r27
	pop r26
	pop r25
	pop r24
	pop r23
	pop r22
	pop r21
	pop r20
	pop r19
	pop r18
	pop r0
	out __RAMPZ__,r0
	pop r0
	out __SREG__,r0
	pop r0
	pop r1
	reti
	.cfi_endproc
.LFE70:
	.size	__vector_60, .-__vector_60
	.section	.text.sboxnet_timer_bit,"ax",@progbits
.global	sboxnet_timer_bit
	.type	sboxnet_timer_bit, @function
sboxnet_timer_bit:
.LFB71:
	.loc 1 811 0
	.cfi_startproc
	push r16
.LCFI44:
	.cfi_def_cfa_offset 3
	.cfi_offset 16, -2
	push r17
.LCFI45:
	.cfi_def_cfa_offset 4
	.cfi_offset 17, -3
	push r28
.LCFI46:
	.cfi_def_cfa_offset 5
	.cfi_offset 28, -4
	push r29
.LCFI47:
	.cfi_def_cfa_offset 6
	.cfi_offset 29, -5
	push __zero_reg__
.LCFI48:
	.cfi_def_cfa_offset 7
	in r28,__SP_L__
	in r29,__SP_H__
.LCFI49:
	.cfi_def_cfa_register 28
/* prologue: function */
/* frame size = 1 */
/* stack size = 5 */
.L__stack_usage = 5
.LVL116:
	.loc 1 815 0
	ldi r30,0
	ldi r31,lo8(10)
	ldd r24,Z+7
	andi r24,lo8(-4)
	std Z+7,r24
	.loc 1 818 0
	lds r24,g_v+28
	std Y+1,r24
	.loc 1 820 0
	cpi r24,lo8(1)
	breq .+2
	rjmp .L64
	.loc 1 822 0
	lds r24,g_v+32
	tst r24
	brne .+2
	rjmp .L65
	.loc 1 822 0 is_stmt 0 discriminator 1
	lds r24,g_v+31
	cpse r24,__zero_reg__
	rjmp .L65
.LVL117:
.LBB326:
.LBB327:
.LBB328:
	.loc 1 421 0 is_stmt 1
	lds r25,g_v+191
	lds r24,g_v+186
	cp r24,r25
	brsh .L66
	.loc 1 422 0
	lds r30,g_v+185
	ldi r31,0
	subi r30,lo8(-(g_v+185))
	sbci r31,hi8(-(g_v+185))
	ldd r17,Z+8
.LVL118:
	rjmp .L67
.LVL119:
.L66:
	.loc 1 425 0
	ldi r30,lo8(g_v)
	ldi r31,hi8(g_v)
	ldd r24,Z+29
	ori r24,lo8(2)
	std Z+29,r24
	.loc 1 420 0
	ldi r17,0
.LVL120:
.L67:
.LBE328:
.LBE327:
	.loc 1 829 0
	ldi r24,lo8(8)
	sts 1669,r24
	.loc 1 831 0
	ldi r30,lo8(-96)
	ldi r31,lo8(10)
	ldd r24,Z+4
	ori r24,lo8(9)
	std Z+4,r24
.LBB329:
.LBB330:
	.loc 1 577 0
	lds r24,1676
.LBE330:
.LBE329:
	.loc 1 833 0
	sbrc r24,0
	rjmp .L68
	.loc 1 833 0 discriminator 1
	lds r24,1672
	.loc 1 833 0 discriminator 1
	sbrc r24,2
	rjmp .L69
.L68:
.LBB331:
	.loc 1 834 0
	call sboxnet_prandom
.LVL121:
	.loc 1 835 0
	lds r18,g_v+30
	ldi r19,0
	lsl r18
	rol r19
	lsl r18
	rol r19
	lsl r18
	rol r19
	andi r24,lo8(127)
.LVL122:
	movw r20,r18
	add r20,r24
	adc r21,__zero_reg__
	movw r24,r20
	call sboxnet_set_backoff_with_offset
.LVL123:
.LBE331:
	.loc 1 833 0
	rjmp .L63
.L69:
	.loc 1 839 0
	ldi r30,lo8(-96)
	ldi r31,lo8(10)
	ldd r24,Z+4
	andi r24,lo8(-17)
	std Z+4,r24
	.loc 1 840 0
	ldd r24,Z+3
	andi r24,lo8(-61)
	std Z+3,r24
	.loc 1 841 0
	ldd r24,Z+4
	ori r24,lo8(16)
	std Z+4,r24
	.loc 1 842 0
	ldd r24,Z+3
	ori r24,lo8(8)
	std Z+3,r24
	.loc 1 843 0
	st Z,r17
	.loc 1 844 0
	ldd r24,Z+4
	andi r24,lo8(-3)
	std Z+4,r24
	.loc 1 846 0
	ldi r24,lo8(g_v+185)
	ldi r25,hi8(g_v+185)
	call sboxnet_rb_read
.LVL124:
	.loc 1 847 0
	ldi r30,lo8(g_v)
	ldi r31,hi8(g_v)
	std Z+33,r17
	.loc 1 848 0
	ldd r24,Z+31
	subi r24,lo8(-(1))
	std Z+31,r24
	.loc 1 849 0
	ldi r24,lo8(3)
	std Z+28,r24
	rjmp .L63
.L65:
.LBE326:
	.loc 1 852 0
	sts g_v+28,__zero_reg__
	rjmp .L63
.L64:
	.loc 1 857 0
	cpi r24,lo8(2)
	brne .L71
	.loc 1 858 0
	ldi r16,lo8(-128)
	ldi r17,lo8(6)
	ldi r24,lo8(8)
	movw r30,r16
	std Z+5,r24
	.loc 1 859 0
	ldi r24,lo8(4)
	sts g_v+28,r24
	.loc 1 860 0
	ldi r24,lo8(-128)
	ldi r25,0
	call sboxnet_set_timer
.LVL125:
.LBB332:
.LBB333:
	.loc 1 567 0
	ldi r24,lo8(1)
	movw r30,r16
	std Z+12,r24
	rjmp .L63
.L71:
.LBE333:
.LBE332:
	.loc 1 865 0
	cpi r24,lo8(4)
	brne .L63
.LBB334:
.LBB335:
	.loc 1 577 0
	lds r24,1676
.LBE335:
.LBE334:
	.loc 1 866 0
	sbrc r24,0
	rjmp .L72
	.loc 1 866 0 discriminator 1
	lds r24,1672
	.loc 1 866 0 discriminator 1
	sbrs r24,2
	rjmp .L72
	.loc 1 867 0
	call sboxnet_receiver_enable
.LVL126:
	.loc 1 868 0
	sts g_v+28,__zero_reg__
	.loc 1 869 0
	call sboxnet_check_try_transmit
.LVL127:
	rjmp .L63
.L72:
.LBB336:
.LBB337:
	.loc 1 567 0
	ldi r24,lo8(1)
	sts 1676,r24
.LBE337:
.LBE336:
	.loc 1 872 0
	ldi r24,lo8(-128)
	ldi r25,0
	call sboxnet_set_timer
.LVL128:
.L63:
/* epilogue start */
	.loc 1 876 0
	pop __tmp_reg__
	pop r29
	pop r28
	pop r17
	pop r16
	ret
	.cfi_endproc
.LFE71:
	.size	sboxnet_timer_bit, .-sboxnet_timer_bit
	.section	.text.sboxnet_receive_msg,"ax",@progbits
	.type	sboxnet_receive_msg, @function
sboxnet_receive_msg:
.LFB72:
	.loc 1 880 0
	.cfi_startproc
.LVL129:
	push r13
.LCFI50:
	.cfi_def_cfa_offset 3
	.cfi_offset 13, -2
	push r14
.LCFI51:
	.cfi_def_cfa_offset 4
	.cfi_offset 14, -3
	push r15
.LCFI52:
	.cfi_def_cfa_offset 5
	.cfi_offset 15, -4
	push r16
.LCFI53:
	.cfi_def_cfa_offset 6
	.cfi_offset 16, -5
	push r17
.LCFI54:
	.cfi_def_cfa_offset 7
	.cfi_offset 17, -6
	push r28
.LCFI55:
	.cfi_def_cfa_offset 8
	.cfi_offset 28, -7
	push r29
.LCFI56:
	.cfi_def_cfa_offset 9
	.cfi_offset 29, -8
/* prologue: function */
/* frame size = 0 */
/* stack size = 7 */
.L__stack_usage = 7
	movw r20,r24
	.loc 1 881 0
	cpi r22,lo8(6)
	brsh .+2
	rjmp .L81
.LVL130:
.LBB368:
	.loc 1 888 0
	in r25,__SREG__
.LVL131:
.LBB369:
.LBB370:
	.loc 5 50 0
/* #APP */
 ;  50 "c:\program files (x86)\atmel\studio\7.0\toolchain\avr8\avr8-gnu-toolchain\avr\include\util\atomic.h" 1
	cli
 ;  0 "" 2
.LVL132:
/* #NOAPP */
.LBE370:
.LBE369:
.LBB371:
.LBB372:
	.loc 1 434 0
	ldi r30,lo8(g_v)
	ldi r31,hi8(g_v)
	ldd r19,Z+43
	ldd r18,Z+38
	mov r24,r19
.LVL133:
	sub r24,r18
.LVL134:
.LBE372:
.LBE371:
	.loc 1 890 0
	cpi r24,lo8(7)
	brsh .+2
	rjmp .L82
.LVL135:
.LBB373:
.LBB374:
	.loc 1 421 0
	cp r18,r19
	brsh .L76
	.loc 1 422 0
	lds r30,g_v+37
	ldi r31,0
	subi r30,lo8(-(g_v))
	sbci r31,hi8(-(g_v))
	ldd r28,Z+45
.LVL136:
	rjmp .L75
.LVL137:
.L76:
	.loc 1 425 0
	ldi r30,lo8(g_v)
	ldi r31,hi8(g_v)
	ldd r18,Z+29
	ori r18,lo8(2)
	std Z+29,r18
	.loc 1 420 0
	ldi r28,0
	rjmp .L75
.LVL138:
.L90:
.LBE374:
.LBE373:
.LBE368:
	.loc 1 896 0
	mov r30,r28
	ldi r31,0
	adiw r30,1
	mov r18,r24
	ldi r19,0
	cp r18,r30
	cpc r19,r31
	brge .+2
	rjmp .L83
.LVL139:
	.loc 1 899 0
	cp r22,r28
	brsh .+2
	rjmp .L84
	.loc 1 902 0
	cpi r28,lo8(70)
	brlo .+2
	rjmp .L85
	movw r16,r20
.LBB377:
	.loc 1 905 0
	in r29,__SREG__
.LVL140:
.LBB378:
.LBB379:
	.loc 5 50 0
/* #APP */
 ;  50 "c:\program files (x86)\atmel\studio\7.0\toolchain\avr8\avr8-gnu-toolchain\avr\include\util\atomic.h" 1
	cli
 ;  0 "" 2
.LVL141:
/* #NOAPP */
.LBE379:
.LBE378:
	.loc 1 906 0
	ldi r24,lo8(g_v+37)
	ldi r25,hi8(g_v+37)
	call sboxnet_rb_read
.LVL142:
.LBB380:
.LBB381:
	.loc 5 70 0
	out __SREG__,r29
	.loc 5 71 0
.LVL143:
.LBE381:
.LBE380:
.LBE377:
.LBB382:
	.loc 1 910 0
	tst r28
	breq .L86
	movw r14,r16
	ldi r20,lo8(-1)
	add r20,r28
	ldi r21,0
	subi r20,-1
	sbci r21,-1
	add r16,r20
	adc r17,r21
.LVL144:
	ldi r29,lo8(-1)
.LVL145:
.L78:
.LBB383:
.LBB384:
	.loc 1 912 0
	in r13,__SREG__
.LVL146:
.LBB385:
.LBB386:
	.loc 5 50 0
/* #APP */
 ;  50 "c:\program files (x86)\atmel\studio\7.0\toolchain\avr8\avr8-gnu-toolchain\avr\include\util\atomic.h" 1
	cli
 ;  0 "" 2
.LVL147:
/* #NOAPP */
.LBE386:
.LBE385:
	.loc 1 913 0
	ldi r24,lo8(g_v+37)
	ldi r25,hi8(g_v+37)
	call sboxnet_rb_read
.LVL148:
.LBB387:
.LBB388:
	.loc 5 70 0
	out __SREG__,r13
	.loc 5 71 0
.LVL149:
.LBE388:
.LBE387:
.LBE384:
.LBB389:
.LBB390:
.LBB391:
	.loc 4 323 0
	mov r25,r29
/* #APP */
 ;  323 "c:\program files (x86)\atmel\studio\7.0\toolchain\avr8\avr8-gnu-toolchain\avr\include\util\crc16.h" 1
		eor	r25, r24
		ldi	r18, 8
		ldi	r19, 0x8C
	1:	lsr	r25
		brcc	2f
		eor	r25, r19
	2:	dec	r18
		brne	1b
	
 ;  0 "" 2
.LVL150:
/* #NOAPP */
	mov r29,r25
.LVL151:
.LBE391:
.LBE390:
.LBE389:
	.loc 1 919 0
	movw r30,r14
	st Z+,r24
.LVL152:
	movw r14,r30
.LVL153:
.LBE383:
	.loc 1 910 0
	cp r16,r30
	cpc r17,r31
	brne .L78
	rjmp .L77
.LVL154:
.L86:
.LBE382:
	.loc 1 909 0
	ldi r29,lo8(-1)
.LVL155:
.L77:
.LBB392:
	.loc 1 921 0
	in r17,__SREG__
.LVL156:
.LBB393:
.LBB394:
	.loc 5 50 0
/* #APP */
 ;  50 "c:\program files (x86)\atmel\studio\7.0\toolchain\avr8\avr8-gnu-toolchain\avr\include\util\atomic.h" 1
	cli
 ;  0 "" 2
.LVL157:
/* #NOAPP */
.LBE394:
.LBE393:
	.loc 1 922 0
	ldi r24,lo8(g_v+37)
	ldi r25,hi8(g_v+37)
	call sboxnet_rb_read_commit
.LVL158:
.LBB395:
.LBB396:
	.loc 5 70 0
	out __SREG__,r17
	.loc 5 71 0
.LVL159:
.LBE396:
.LBE395:
.LBE392:
	.loc 1 925 0
	tst r29
	breq .L79
	.loc 1 926 0
	call sboxnet_debug_inc_recverrors
.LVL160:
	.loc 1 927 0
	ldi r30,lo8(g_v+367)
	ldi r31,hi8(g_v+367)
	ld r24,Z
	ldd r25,Z+1
	adiw r24,1
	st Z,r24
	std Z+1,r25
	.loc 1 928 0
	ldi r24,lo8(-2)
	rjmp .L89
.L79:
	.loc 1 930 0
	ldi r30,lo8(g_v+337)
	ldi r31,hi8(g_v+337)
	ld r24,Z
	ldd r25,Z+1
	adiw r24,1
	st Z,r24
	std Z+1,r25
	.loc 1 932 0
	mov r24,r28
	rjmp .L89
.LVL161:
.L81:
	.loc 1 882 0
	ldi r24,lo8(-3)
	rjmp .L89
.LVL162:
.L83:
	.loc 1 897 0
	ldi r24,lo8(-1)
	rjmp .L89
.L84:
	.loc 1 900 0
	ldi r24,lo8(-3)
	rjmp .L89
.L85:
	.loc 1 903 0
	ldi r24,lo8(-4)
	rjmp .L89
.LVL163:
.L87:
	.loc 1 894 0
	ldi r24,lo8(-1)
.LVL164:
	rjmp .L89
.LVL165:
.L82:
.LBB397:
	ldi r28,0
.L75:
.LVL166:
.LBB375:
.LBB376:
	.loc 5 70 0
	out __SREG__,r25
	.loc 5 71 0
.LVL167:
.LBE376:
.LBE375:
.LBE397:
	.loc 1 893 0
	cpi r28,lo8(6)
	brlo .+2
	rjmp .L90
	rjmp .L87
.LVL168:
.L89:
/* epilogue start */
	.loc 1 933 0
	pop r29
	pop r28
	pop r17
	pop r16
	pop r15
	pop r14
	pop r13
	ret
	.cfi_endproc
.LFE72:
	.size	sboxnet_receive_msg, .-sboxnet_receive_msg
	.section	.text.sboxnet_send_msg,"ax",@progbits
.global	sboxnet_send_msg
	.type	sboxnet_send_msg, @function
sboxnet_send_msg:
.LFB73:
	.loc 1 937 0
	.cfi_startproc
.LVL169:
	push r11
.LCFI57:
	.cfi_def_cfa_offset 3
	.cfi_offset 11, -2
	push r12
.LCFI58:
	.cfi_def_cfa_offset 4
	.cfi_offset 12, -3
	push r13
.LCFI59:
	.cfi_def_cfa_offset 5
	.cfi_offset 13, -4
	push r14
.LCFI60:
	.cfi_def_cfa_offset 6
	.cfi_offset 14, -5
	push r15
.LCFI61:
	.cfi_def_cfa_offset 7
	.cfi_offset 15, -6
	push r16
.LCFI62:
	.cfi_def_cfa_offset 8
	.cfi_offset 16, -7
	push r17
.LCFI63:
	.cfi_def_cfa_offset 9
	.cfi_offset 17, -8
	push r28
.LCFI64:
	.cfi_def_cfa_offset 10
	.cfi_offset 28, -9
	push r29
.LCFI65:
	.cfi_def_cfa_offset 11
	.cfi_offset 29, -10
/* prologue: function */
/* frame size = 0 */
/* stack size = 9 */
.L__stack_usage = 9
	movw r30,r24
.LVL170:
	.loc 1 941 0
	ldd r16,Z+3
	andi r16,lo8(63)
	subi r16,lo8(-(6))
.LVL171:
.LBB439:
	.loc 1 943 0
	in r24,__SREG__
.LVL172:
.LBB440:
.LBB441:
	.loc 5 50 0
/* #APP */
 ;  50 "c:\program files (x86)\atmel\studio\7.0\toolchain\avr8\avr8-gnu-toolchain\avr\include\util\atomic.h" 1
	cli
 ;  0 "" 2
.LVL173:
/* #NOAPP */
.LBE441:
.LBE440:
.LBB442:
.LBB443:
	.loc 1 318 0
	lds r25,g_v+192
	lds r18,g_v+191
	sub r25,r18
	lds r18,g_v+189
	sub r25,r18
.LVL174:
.LBE443:
.LBE442:
.LBB444:
.LBB445:
	.loc 5 70 0
	out __SREG__,r24
	.loc 5 71 0
.LVL175:
.LBE445:
.LBE444:
.LBE439:
	.loc 1 949 0
	cp r16,r25
	brlo .L92
	.loc 1 951 0
	lds r24,g_dev_errflags
	ori r24,lo8(2)
	sts g_dev_errflags,r24
.LVL176:
	.loc 1 953 0
	ldi r24,lo8(2)
	rjmp .L93
.LVL177:
.L92:
	movw r14,r30
.LBB446:
	.loc 1 956 0
	in r28,__SREG__
.LVL178:
.LBB447:
.LBB448:
	.loc 5 50 0
/* #APP */
 ;  50 "c:\program files (x86)\atmel\studio\7.0\toolchain\avr8\avr8-gnu-toolchain\avr\include\util\atomic.h" 1
	cli
 ;  0 "" 2
.LVL179:
/* #NOAPP */
.LBE448:
.LBE447:
	.loc 1 958 0
	mov r22,r16
	ldi r24,lo8(g_v+185)
	ldi r25,hi8(g_v+185)
	call sboxnet_rb_write
.LVL180:
.LBB449:
.LBB450:
	.loc 5 70 0
	out __SREG__,r28
	.loc 5 71 0
.LVL181:
.LBE450:
.LBE449:
.LBE446:
	.loc 1 960 0
	tst r24
	brne .+2
	rjmp .L101
.LVL182:
	.loc 1 966 0 discriminator 1
	ldi r17,0
	subi r16,1
	sbc r17,__zero_reg__
.LVL183:
	cp __zero_reg__,r16
	cpc __zero_reg__,r17
	brge .L102
	.loc 1 966 0 is_stmt 0
	mov r11,__zero_reg__
	ldi r28,lo8(-1)
.LBB451:
	.loc 1 969 0 is_stmt 1
	mov __tmp_reg__,r31
	ldi r31,lo8(g_v)
	mov r12,r31
	ldi r31,hi8(g_v)
	mov r13,r31
	mov r31,__tmp_reg__
.LVL184:
.L98:
	.loc 1 968 0
	ldi r24,lo8(1)
	cpse r11,r24
	rjmp .L96
	.loc 1 969 0
	movw r30,r12
	ld r22,Z
.LVL185:
	rjmp .L97
.LVL186:
.L96:
	.loc 1 971 0
	movw r30,r14
	add r30,r11
	adc r31,__zero_reg__
	ld r22,Z
.LVL187:
.L97:
.LBB452:
.LBB453:
.LBB454:
	.loc 4 323 0
	mov r25,r28
/* #APP */
 ;  323 "c:\program files (x86)\atmel\studio\7.0\toolchain\avr8\avr8-gnu-toolchain\avr\include\util\crc16.h" 1
		eor	r25, r22
		ldi	r24, 8
		ldi	r18, 0x8C
	1:	lsr	r25
		brcc	2f
		eor	r25, r18
	2:	dec	r24
		brne	1b
	
 ;  0 "" 2
.LVL188:
/* #NOAPP */
	mov r28,r25
.LVL189:
.LBE454:
.LBE453:
.LBE452:
.LBB455:
	.loc 1 974 0
	in r29,__SREG__
.LVL190:
.LBB456:
.LBB457:
	.loc 5 50 0
/* #APP */
 ;  50 "c:\program files (x86)\atmel\studio\7.0\toolchain\avr8\avr8-gnu-toolchain\avr\include\util\atomic.h" 1
	cli
 ;  0 "" 2
.LVL191:
/* #NOAPP */
.LBE457:
.LBE456:
	.loc 1 976 0
	ldi r24,lo8(g_v+185)
	ldi r25,hi8(g_v+185)
	call sboxnet_rb_write
.LVL192:
.LBB458:
.LBB459:
	.loc 5 70 0
	out __SREG__,r29
	.loc 5 71 0
.LVL193:
.LBE459:
.LBE458:
.LBE455:
	.loc 1 978 0
	tst r24
	breq .L103
.LBE451:
	.loc 1 966 0 discriminator 2
	inc r11
.LVL194:
	mov r24,r11
.LVL195:
	ldi r25,0
	cp r24,r16
	cpc r25,r17
	brlt .L98
	rjmp .L95
.LVL196:
.L102:
	.loc 1 966 0 is_stmt 0
	ldi r28,lo8(-1)
.LVL197:
.L95:
.LBB460:
	.loc 1 983 0 is_stmt 1
	in r29,__SREG__
.LVL198:
.LBB461:
.LBB462:
	.loc 5 50 0
/* #APP */
 ;  50 "c:\program files (x86)\atmel\studio\7.0\toolchain\avr8\avr8-gnu-toolchain\avr\include\util\atomic.h" 1
	cli
 ;  0 "" 2
.LVL199:
/* #NOAPP */
.LBE462:
.LBE461:
	.loc 1 985 0
	mov r22,r28
	ldi r24,lo8(g_v+185)
	ldi r25,hi8(g_v+185)
	call sboxnet_rb_write
.LVL200:
.LBB463:
.LBB464:
	.loc 5 70 0
	out __SREG__,r29
	.loc 5 71 0
.LVL201:
.LBE464:
.LBE463:
.LBE460:
	.loc 1 987 0
	cpse r24,__zero_reg__
	rjmp .L99
	rjmp .L94
.LVL202:
.L101:
	.loc 1 961 0
	ldi r24,lo8(3)
.LVL203:
	rjmp .L94
.LVL204:
.L103:
.LBB465:
	.loc 1 979 0
	ldi r24,lo8(6)
.LVL205:
.L94:
.LBE465:
.LBB466:
	.loc 1 989 0
	in r25,__SREG__
.LVL206:
.LBB467:
.LBB468:
	.loc 5 50 0
/* #APP */
 ;  50 "c:\program files (x86)\atmel\studio\7.0\toolchain\avr8\avr8-gnu-toolchain\avr\include\util\atomic.h" 1
	cli
 ;  0 "" 2
.LVL207:
/* #NOAPP */
.LBE468:
.LBE467:
.LBB469:
.LBB470:
	.loc 1 341 0
	sts g_v+189,__zero_reg__
	.loc 1 342 0
	lds r18,g_v+190
	sts g_v+188,r18
.LVL208:
.LBE470:
.LBE469:
.LBB471:
.LBB472:
	.loc 5 70 0
	out __SREG__,r25
	.loc 5 71 0
.LVL209:
.LBE472:
.LBE471:
.LBE466:
	.loc 1 992 0
	rjmp .L93
.LVL210:
.L99:
.LBB473:
	.loc 1 994 0
	in r28,__SREG__
.LVL211:
.LBB474:
.LBB475:
	.loc 5 50 0
/* #APP */
 ;  50 "c:\program files (x86)\atmel\studio\7.0\toolchain\avr8\avr8-gnu-toolchain\avr\include\util\atomic.h" 1
	cli
 ;  0 "" 2
.LVL212:
/* #NOAPP */
.LBE475:
.LBE474:
.LBB476:
.LBB477:
	.loc 1 326 0
	lds r24,g_v+191
.LVL213:
	lds r25,g_v+189
	mov r20,r24
	ldi r21,0
	add r20,r25
	adc r21,__zero_reg__
	lds r18,g_v+192
	ldi r19,0
	cp r18,r20
	cpc r19,r21
	brge .L100
	.loc 1 327 0
	ldi r30,lo8(g_v)
	ldi r31,hi8(g_v)
	ldd r18,Z+29
	ori r18,lo8(4)
	std Z+29,r18
.L100:
	.loc 1 331 0
	add r24,r25
	sts g_v+191,r24
	.loc 1 333 0
	sts g_v+189,__zero_reg__
	.loc 1 335 0
	lds r24,g_v+188
	sts g_v+190,r24
.LVL214:
.LBE477:
.LBE476:
	.loc 1 996 0
	call sboxnet_check_try_transmit
.LVL215:
.LBB478:
.LBB479:
	.loc 5 70 0
	out __SREG__,r28
	.loc 5 71 0
.LVL216:
.LBE479:
.LBE478:
.LBE473:
	.loc 1 998 0
	ldi r30,lo8(g_v+341)
	ldi r31,hi8(g_v+341)
	ld r24,Z
	ldd r25,Z+1
	adiw r24,1
	st Z,r24
	std Z+1,r25
	.loc 1 999 0
	ldi r24,0
.LVL217:
.L93:
/* epilogue start */
	.loc 1 1000 0
	pop r29
	pop r28
	pop r17
	pop r16
	pop r15
	pop r14
	pop r13
	pop r12
	pop r11
	ret
	.cfi_endproc
.LFE73:
	.size	sboxnet_send_msg, .-sboxnet_send_msg
	.section	.bldrapp
	.type	bldr_process_msg, @function
bldr_process_msg:
.LFB92:
	.loc 3 1026 0
	.cfi_startproc
.LVL218:
	push r12
.LCFI66:
	.cfi_def_cfa_offset 3
	.cfi_offset 12, -2
	push r13
.LCFI67:
	.cfi_def_cfa_offset 4
	.cfi_offset 13, -3
	push r14
.LCFI68:
	.cfi_def_cfa_offset 5
	.cfi_offset 14, -4
	push r15
.LCFI69:
	.cfi_def_cfa_offset 6
	.cfi_offset 15, -5
	push r16
.LCFI70:
	.cfi_def_cfa_offset 7
	.cfi_offset 16, -6
	push r17
.LCFI71:
	.cfi_def_cfa_offset 8
	.cfi_offset 17, -7
	push r28
.LCFI72:
	.cfi_def_cfa_offset 9
	.cfi_offset 28, -8
	push r29
.LCFI73:
	.cfi_def_cfa_offset 10
	.cfi_offset 29, -9
/* prologue: function */
/* frame size = 0 */
/* stack size = 8 */
.L__stack_usage = 8
	movw r28,r24
.LVL219:
	.loc 3 1030 0
	ldd r24,Y+1
.LVL220:
	cpse r24,__zero_reg__
	rjmp .L106
	.loc 3 1031 0
	ldi r24,lo8(-128)
	sts g_v+7,r24
.L106:
	.loc 3 1034 0
	ldd r24,Y+4
	tst r24
	brge .+2
	rjmp .L138
	movw r16,r22
.LVL221:
.LBB497:
.LBB498:
	.loc 3 892 0
	cpi r24,lo8(2)
	brne .+2
	rjmp .L139
.LVL222:
	cpi r24,lo8(21)
	breq .L110
	cpi r24,lo8(1)
	brne .L161
	.loc 3 896 0
	ldd r24,Y+1
	cpse r24,__zero_reg__
	rjmp .L112
	.loc 3 898 0
	call bldr_process_cmd_net_reset
.LVL223:
	rjmp .L112
.L110:
	.loc 3 910 0
	ldi r24,lo8(g_dev_state)
	ldi r25,hi8(g_dev_state)
	sbiw r24,32
	brsh .L113
	lds r24,g_dev_state
	ori r24,lo8(64)
	sts g_dev_state,r24
	rjmp .L114
.L113:
.LBB499:
	.loc 3 910 0
	in r25,__SREG__
.LVL224:
.LBB500:
.LBB501:
	.loc 5 50 0
/* #APP */
 ;  50 "c:\program files (x86)\atmel\studio\7.0\toolchain\avr8\avr8-gnu-toolchain\avr\include\util\atomic.h" 1
	cli
 ;  0 "" 2
.LVL225:
/* #NOAPP */
.LBE501:
.LBE500:
	.loc 3 910 0
	lds r24,g_dev_state
	ori r24,lo8(64)
	sts g_dev_state,r24
.LVL226:
.LBB502:
.LBB503:
	.loc 5 70 0
	out __SREG__,r25
	.loc 5 71 0
.LVL227:
.L114:
.LBE503:
.LBE502:
.LBE499:
	.loc 3 912 0
	ld r24,Y
	cpi r24,lo8(-1)
	brne .+2
	rjmp .L112
	.loc 3 916 0
	ldd r24,Y+3
	andi r24,lo8(-64)
	std Y+3,r24
	rjmp .L115
.L161:
	.loc 3 923 0
	ld r25,Y
	cpi r25,lo8(-1)
	brne .+2
	rjmp .L112
	.loc 3 927 0
	cpi r24,lo8(32)
	breq .L117
	cpi r24,lo8(33)
	breq .L118
	cpi r24,lo8(25)
	breq .+2
	rjmp .L162
	rjmp .L119
.L117:
.LVL228:
.LBB504:
.LBB505:
	.loc 3 816 0
	ldd r17,Y+3
	andi r17,lo8(63)
	cpi r17,lo8(3)
	breq .+2
	rjmp .L140
	.loc 3 814 0
	ldd r18,Y+7
	.loc 3 816 0
	cpi r18,lo8(32)
	brlo .+2
	rjmp .L136
	.loc 3 812 0
	ldd r24,Y+5
	ldd r25,Y+6
	.loc 3 820 0
	mov r19,r18
	lsl r19
	andi r19,lo8(62)
	ldd r20,Y+3
	andi r20,lo8(-64)
	or r19,r20
	std Y+3,r19
	.loc 3 821 0
	tst r18
	brne .+2
	rjmp .L115
	.loc 3 810 0
	movw r22,r28
	subi r22,-5
	sbci r23,-1
.LVL229:
	ldi r16,lo8(-1)
.LVL230:
	add r16,r18
	ldi r17,0
	subi r16,-1
	sbci r17,-1
	add r16,r24
	adc r17,r25
.LVL231:
.L122:
.LBB506:
	.loc 3 822 0
	movw r12,r22
	ldi r18,2
	add r12,r18
	adc r13,__zero_reg__
.LVL232:
	movw r14,r24
	ldi r30,-1
	sub r14,r30
	sbc r15,r30
.LVL233:
	call bldr_reg_read
.LVL234:
	.loc 3 823 0
	cpse r24,__zero_reg__
	rjmp .L141
	.loc 3 822 0
	movw r22,r12
	movw r24,r14
.LVL235:
.LBE506:
	.loc 3 821 0
	cp r14,r16
	cpc r15,r17
	brne .L122
	rjmp .L115
.LVL236:
.L118:
.LBE505:
.LBE504:
.LBB510:
.LBB511:
	.loc 3 842 0
	ldd r18,Y+3
	andi r18,lo8(63)
	mov r24,r18
	ldi r25,0
	sbrc r18,0
	rjmp .L143
	.loc 3 846 0
	asr r25
	ror r24
	mov r17,r24
.LVL237:
	.loc 3 847 0
	tst r24
	brne .+2
	rjmp .L115
	.loc 3 840 0
	movw r14,r28
	ldi r31,5
	add r14,r31
	adc r15,__zero_reg__
.L124:
	movw r30,r14
.LVL238:
.LBB512:
	.loc 3 848 0
	movw r22,r14
	ldi r18,2
	add r14,r18
	adc r15,__zero_reg__
.LVL239:
	ld r24,Z
	ldd r25,Z+1
	call bldr_reg_read
.LVL240:
	.loc 3 849 0
	cpse r24,__zero_reg__
	rjmp .L144
.LVL241:
	.loc 3 853 0
	subi r17,lo8(-(-1))
.LVL242:
.LBE512:
	.loc 3 847 0
	brne .L124
	rjmp .L115
.LVL243:
.L119:
	lds r24,g_dev_state
	andi r24,lo8(6)
.LBE511:
.LBE510:
.LBB516:
	.loc 3 943 0
	brne .+2
	rjmp .L145
.LVL244:
	.loc 3 947 0
	ldd r25,Y+3
	andi r25,lo8(63)
	.loc 3 948 0
	subi r25,lo8(-(-3))
	cpi r25,lo8(33)
	brlo .+2
	rjmp .L146
.LVL245:
	.loc 3 952 0
	ldd r18,Y+5
	ldd r19,Y+6
.LVL246:
	.loc 3 954 0
	ldd r20,Y+7
	sbrs r20,0
	rjmp .L125
	.loc 3 955 0
	cpi r24,lo8(4)
	breq .+2
	rjmp .L147
	.loc 3 957 0
	movw r20,r18
	add r20,r25
	adc r21,__zero_reg__
	cpi r20,1
	sbci r21,30
	brlo .+2
	rjmp .L148
	rjmp .L126
.LVL247:
.L125:
	.loc 3 961 0
	cpi r24,lo8(2)
	breq .+2
	rjmp .L149
	.loc 3 963 0
	movw r20,r18
.LVL248:
	add r20,r25
	adc r21,__zero_reg__
	cpi r20,1
	sbci r21,-16
	brlo .+2
	rjmp .L150
.L126:
	.loc 3 967 0
	ldi r26,lo8(g_v)
	ldi r27,hi8(g_v)
	adiw r26,16
	ld r30,X+
	ld r31,X
	sbiw r26,16+1
	adiw r26,18
	ld r20,X+
	ld r21,X
	sbiw r26,18+1
	movw r22,r30
	add r22,r20
	adc r23,r21
	cp r18,r22
	cpc r19,r23
	breq .+2
	rjmp .L151
	.loc 3 971 0
	cpse r25,__zero_reg__
	rjmp .L152
.LBB517:
	.loc 3 972 0
	or r20,r21
	breq .L128
	.loc 3 973 0
	ldi r20,0
	movw r22,r16
	movw r24,r30
	call sbldr_prog_page
.LVL249:
	cpse r24,__zero_reg__
	rjmp .L153
.L128:
	lds r24,g_dev_state
	andi r24,lo8(6)
	.loc 3 977 0
	cpi r24,lo8(2)
	brne .L129
	.loc 3 978 0
	ldi r30,lo8(g_v)
	ldi r31,hi8(g_v)
	ldd r18,Z+16
	ldd r19,Z+17
	ldd r24,Z+18
	ldd r25,Z+19
	add r24,r18
	adc r25,r19
	cp r24,__zero_reg__
	sbci r25,30
	breq .+2
	rjmp .L154
	rjmp .L130
.L129:
	.loc 3 980 0
	cpi r24,lo8(4)
	brne .L130
	.loc 3 981 0
	ldi r30,lo8(g_v)
	ldi r31,hi8(g_v)
	ldd r18,Z+16
	ldd r19,Z+17
	ldd r24,Z+18
	ldd r25,Z+19
	add r24,r18
	adc r25,r19
	ldd r18,Z+20
	ldd r19,Z+21
	cp r24,r18
	cpc r25,r19
	breq .+2
	rjmp .L155
.L130:
	.loc 3 985 0
	ldi r30,lo8(g_v)
	ldi r31,hi8(g_v)
	ldd r24,Z+22
	ldd r25,Z+23
.LVL250:
	.loc 3 986 0
	ldd r16,Z+20
	ldd r17,Z+21
.LVL251:
	.loc 3 987 0
	ldi r30,0
	ldi r31,0
	rjmp .L131
.LVL252:
.L132:
.LBB518:
	.loc 3 989 0
	movw r14,r30
	ldi r18,-1
	sub r14,r18
	sbc r15,r18
.LVL253:
	.loc 3 989 0
/* #APP */
 ;  989 ".././bootloader-fw.c" 1
	lpm r22, Z
	
 ;  0 "" 2
.LVL254:
/* #NOAPP */
.LBE518:
	.loc 3 989 0
	call crc_ccitt_update
.LVL255:
.LBB519:
	.loc 3 989 0
	movw r30,r14
.LVL256:
.L131:
.LBE519:
	.loc 3 988 0
	cp r16,r30
	cpc r17,r31
	brne .L132
	.loc 3 991 0
	or r24,r25
	breq .+2
	rjmp .L156
	.loc 3 994 0
	ldi r17,lo8(-2)
	rjmp .L133
.LVL257:
.L135:
.LBE517:
.LBB520:
	.loc 3 997 0
	movw r30,r14
	ldd r24,Z+18
	ldd r25,Z+19
	movw r20,r24
	subi r20,-1
	sbci r21,-1
	std Z+18,r20
	std Z+19,r21
	movw r30,r28
	add r30,r18
	adc r31,r19
	ldd r18,Z+5
	movw r30,r16
	add r30,r24
	adc r31,r25
	st Z,r18
	.loc 3 999 0
	movw r30,r14
	ldd r24,Z+18
	ldd r25,Z+19
	cp r24,__zero_reg__
	sbci r25,1
	brne .L134
	.loc 3 1000 0
	ldi r20,0
	movw r22,r16
	movw r30,r14
	ldd r24,Z+16
	ldd r25,Z+17
	call sbldr_prog_page
.LVL258:
	cpse r24,__zero_reg__
	rjmp .L157
	.loc 3 1003 0
	movw r30,r14
	ldd r24,Z+16
	ldd r25,Z+17
	inc r25
	std Z+16,r24
	std Z+17,r25
	.loc 3 1004 0
	std Z+18,__zero_reg__
	std Z+19,__zero_reg__
.L134:
	.loc 3 996 0
	inc r13
.LVL259:
	rjmp .L127
.LVL260:
.L152:
.LBE520:
	.loc 3 971 0
	mov __tmp_reg__,r31
	ldi r31,lo8(3)
	mov r13,r31
	mov r31,__tmp_reg__
.LBB521:
	.loc 3 997 0
	mov __tmp_reg__,r31
	ldi r31,lo8(g_v)
	mov r14,r31
	ldi r31,hi8(g_v)
	mov r15,r31
	mov r31,__tmp_reg__
.LVL261:
.L127:
	.loc 3 996 0
	mov r18,r13
	ldi r19,0
	ldd r24,Y+3
	andi r24,lo8(63)
	ldi r25,0
	cp r18,r24
	cpc r19,r25
	brlt .L135
.LBE521:
	.loc 3 1007 0
	ldd r24,Y+3
	andi r24,lo8(-64)
	std Y+3,r24
	rjmp .L115
.LVL262:
.L162:
.LBE516:
	.loc 3 1013 0
	movw r24,r28
	call bldr_process_basic_msg
.LVL263:
	mov r17,r24
	rjmp .L109
.L139:
	.loc 3 905 0
	ldi r17,lo8(-1)
.L109:
.LVL264:
.LBE498:
.LBE497:
	.loc 3 1039 0
	cpi r17,lo8(-1)
	breq .L158
	.loc 3 1042 0
	tst r17
	breq .L133
.LVL265:
.L137:
	.loc 3 1042 0 is_stmt 0 discriminator 1
	cpi r17,lo8(-2)
	breq .L133
.L136:
	.loc 3 1048 0 is_stmt 1
	ldd r24,Y+3
	andi r24,lo8(-64)
	ori r24,lo8(2)
	std Y+3,r24
	.loc 3 1049 0
	ldd r24,Y+4
	std Y+5,r24
	.loc 3 1050 0
	std Y+6,r17
	.loc 3 1051 0
	ldi r24,lo8(-128)
	std Y+4,r24
.L133:
	.loc 3 1056 0
	ldd r24,Y+1
	st Y,r24
	.loc 3 1057 0
	ldd r24,Y+4
	ori r24,lo8(-128)
	std Y+4,r24
	.loc 3 1058 0
	movw r24,r28
	call sboxnet_send_msg
.LVL266:
	.loc 3 1059 0
	rjmp .L158
.LVL267:
.L138:
	.loc 3 1035 0
	ldi r17,0
	rjmp .L158
.LVL268:
.L140:
.LBB531:
.LBB529:
.LBB524:
.LBB508:
	.loc 3 817 0
	ldi r17,lo8(3)
	rjmp .L136
.LVL269:
.L143:
.LBE508:
.LBE524:
.LBB525:
.LBB514:
	.loc 3 843 0
	ldi r17,lo8(3)
	rjmp .L136
.LVL270:
.L145:
.LBE514:
.LBE525:
.LBB526:
	.loc 3 944 0
	ldi r17,lo8(101)
	rjmp .L136
.LVL271:
.L146:
	.loc 3 949 0
	ldi r17,lo8(3)
	rjmp .L136
.LVL272:
.L147:
	.loc 3 956 0
	ldi r17,lo8(101)
	rjmp .L136
.LVL273:
.L148:
	.loc 3 958 0
	ldi r17,lo8(102)
	rjmp .L136
.LVL274:
.L149:
	.loc 3 962 0
	ldi r17,lo8(101)
	rjmp .L136
.LVL275:
.L150:
	.loc 3 964 0
	ldi r17,lo8(102)
	rjmp .L136
.L151:
	.loc 3 968 0
	ldi r17,lo8(103)
	rjmp .L136
.LVL276:
.L153:
.LBB522:
	.loc 3 974 0
	ldi r17,lo8(106)
	rjmp .L136
.L154:
	.loc 3 979 0
	ldi r17,lo8(102)
	rjmp .L136
.L155:
	.loc 3 982 0
	ldi r17,lo8(102)
	rjmp .L136
.LVL277:
.L156:
	.loc 3 992 0
	ldi r17,lo8(107)
	rjmp .L136
.LVL278:
.L157:
.LBE522:
.LBB523:
	.loc 3 1001 0
	ldi r17,lo8(106)
.LVL279:
	rjmp .L136
.LVL280:
.L115:
.LBE523:
.LBE526:
	.loc 3 905 0
	ldi r17,0
	rjmp .L133
.LVL281:
.L112:
.LBE529:
.LBE531:
	.loc 3 1040 0
	ldi r17,lo8(-1)
	rjmp .L158
.LVL282:
.L141:
.LBB532:
.LBB530:
.LBB527:
.LBB509:
.LBB507:
	.loc 3 822 0
	mov r17,r24
	rjmp .L121
.LVL283:
.L144:
.LBE507:
.LBE509:
.LBE527:
.LBB528:
.LBB515:
.LBB513:
	.loc 3 848 0
	mov r17,r24
.LVL284:
.L121:
.LBE513:
.LBE515:
.LBE528:
.LBE530:
.LBE532:
	.loc 3 1039 0
	cpi r17,lo8(-1)
	brne .L137
.L158:
	.loc 3 1060 0
	mov r24,r17
/* epilogue start */
	pop r29
	pop r28
.LVL285:
	pop r17
	pop r16
	pop r15
	pop r14
	pop r13
	pop r12
	ret
	.cfi_endproc
.LFE92:
	.size	bldr_process_msg, .-bldr_process_msg
	.type	bldr_main, @function
bldr_main:
.LFB98:
	.loc 3 1326 0
	.cfi_startproc
.LVL286:
	push r28
.LCFI74:
	.cfi_def_cfa_offset 3
	.cfi_offset 28, -2
	push r29
.LCFI75:
	.cfi_def_cfa_offset 4
	.cfi_offset 29, -3
	in r28,__SP_L__
	in r29,__SP_H__
.LCFI76:
	.cfi_def_cfa_register 28
	subi r28,70
	sbci r29,1
.LCFI77:
	.cfi_def_cfa_offset 330
	out __SP_L__,r28
	out __SP_H__,r29
/* prologue: function */
/* frame size = 326 */
/* stack size = 328 */
.L__stack_usage = 328
.LVL287:
.LBB533:
	.loc 3 1331 0
	.loc 3 1331 0
	ldi r25,lo8(-40)
	out __CCP__,r25
	.loc 3 1331 0
	ldi r25,lo8(66)
	sts 162,r25
.LBE533:
	.loc 3 1334 0
	ldi r18,lo8(g_dev_state)
	ldi r19,hi8(g_dev_state)
	cpi r18,32
	cpc r19,__zero_reg__
	brsh .L164
	.loc 3 1334 0 is_stmt 0 discriminator 1
	lds r25,g_dev_state
	ori r25,lo8(1)
	sts g_dev_state,r25
	rjmp .L165
.L164:
.LBB534:
	.loc 3 1334 0 is_stmt 1 discriminator 2
	in r18,__SREG__
.LVL288:
.LBB535:
.LBB536:
	.loc 5 50 0 discriminator 2
/* #APP */
 ;  50 "c:\program files (x86)\atmel\studio\7.0\toolchain\avr8\avr8-gnu-toolchain\avr\include\util\atomic.h" 1
	cli
 ;  0 "" 2
.LVL289:
/* #NOAPP */
.LBE536:
.LBE535:
	.loc 3 1334 0 discriminator 2
	lds r25,g_dev_state
	ori r25,lo8(1)
	sts g_dev_state,r25
.LVL290:
.LBB537:
.LBB538:
	.loc 5 70 0 discriminator 2
	out __SREG__,r18
	.loc 5 71 0 discriminator 2
.LVL291:
.L165:
.LBE538:
.LBE537:
.LBE534:
	.loc 3 1336 0
	tst r24
	breq .L166
	.loc 3 1340 0
	call bldr_process_cmd_net_reset
.LVL292:
	.loc 3 1343 0
	call sboxnet_init
.LVL293:
.L166:
	.loc 3 1347 0
	ldi r30,lo8(72)
	ldi r31,0
	ld r24,Z
	andi r24,lo8(-15)
	st Z,r24
	.loc 3 1349 0
/* #APP */
 ;  1349 ".././bootloader-fw.c" 1
	sei
 ;  0 "" 2
/* #NOAPP */
.LBB539:
	.loc 3 1373 0
	ldi r16,lo8(72)
	ldi r17,0
.L169:
	.loc 3 1353 0
	movw r24,r28
	adiw r24,1
	call bldr_task
.LVL294:
	subi r28,lo8(-326)
	sbci r29,hi8(-326)
	st Y,r24
	subi r28,lo8(326)
	sbci r29,hi8(326)
	.loc 3 1354 0
	subi r28,lo8(-326)
	sbci r29,hi8(-326)
	ld r24,Y
	subi r28,lo8(326)
	sbci r29,hi8(326)
	cpse r24,__zero_reg__
	rjmp .L167
	.loc 3 1356 0
	ldi r22,lo8(69)
	movw r24,r28
	adiw r24,1
	call sboxnet_receive_msg
.LVL295:
	cp __zero_reg__,r24
	brge .L167
	.loc 3 1358 0
	movw r22,r28
	subi r22,-70
	sbci r23,-1
	movw r24,r28
	adiw r24,1
	call bldr_process_msg
.LVL296:
	cpi r24,lo8(-2)
	brne .L167
	.loc 3 1361 0
	call sboxnet_all_sent
.LVL297:
.L168:
	.loc 3 1361 0 is_stmt 0 discriminator 1
	tst r24
	breq .L168
	.loc 3 1363 0 is_stmt 1
	lds r24,g_dev_state
	.loc 3 1363 0
	andi r24,lo8(4)
	call sbldr_finish_fwup
.LVL298:
.L167:
	.loc 3 1373 0
	movw r30,r16
	ld r24,Z
	ori r24,lo8(1)
	st Z,r24
/* #APP */
 ;  1373 ".././bootloader-fw.c" 1
	sleep
	
 ;  0 "" 2
/* #NOAPP */
	ld r24,Z
	andi r24,lo8(-2)
	st Z,r24
.LBE539:
	.loc 3 1374 0
	rjmp .L169
	.cfi_endproc
.LFE98:
	.size	bldr_main, .-bldr_main
	.section	.text.sboxnet_can_send_msg,"ax",@progbits
.global	sboxnet_can_send_msg
	.type	sboxnet_can_send_msg, @function
sboxnet_can_send_msg:
.LFB74:
	.loc 1 1002 0
	.cfi_startproc
.LVL299:
/* prologue: function */
/* frame size = 0 */
/* stack size = 0 */
.L__stack_usage = 0
	.loc 1 1003 0
	movw r30,r24
	ldd r18,Z+3
	andi r18,lo8(63)
	subi r18,lo8(-(6))
.LVL300:
.LBB540:
	.loc 1 1005 0
	in r24,__SREG__
.LVL301:
.LBB541:
.LBB542:
	.loc 5 50 0
/* #APP */
 ;  50 "c:\program files (x86)\atmel\studio\7.0\toolchain\avr8\avr8-gnu-toolchain\avr\include\util\atomic.h" 1
	cli
 ;  0 "" 2
.LVL302:
/* #NOAPP */
.LBE542:
.LBE541:
.LBB543:
.LBB544:
	.loc 1 318 0
	lds r25,g_v+192
	lds r19,g_v+191
	sub r25,r19
	lds r19,g_v+189
	sub r25,r19
.LVL303:
.LBE544:
.LBE543:
.LBB545:
.LBB546:
	.loc 5 70 0
	out __SREG__,r24
	.loc 5 71 0
.LVL304:
.LBE546:
.LBE545:
.LBE540:
	.loc 1 1008 0
	ldi r24,lo8(1)
	cp r18,r25
	brlo .L172
	ldi r24,0
.L172:
	.loc 1 1009 0
	ret
	.cfi_endproc
.LFE74:
	.size	sboxnet_can_send_msg, .-sboxnet_can_send_msg
	.section	.bldrapp
.global	__vector_49
	.type	__vector_49, @function
__vector_49:
.LFB79:
	.loc 3 370 0
	.cfi_startproc
	push r1
.LCFI78:
	.cfi_def_cfa_offset 3
	.cfi_offset 1, -2
	push r0
.LCFI79:
	.cfi_def_cfa_offset 4
	.cfi_offset 0, -3
	in r0,__SREG__
	push r0
	clr __zero_reg__
	in r0,__RAMPZ__
	push r0
	push r18
.LCFI80:
	.cfi_def_cfa_offset 5
	.cfi_offset 18, -4
	push r19
.LCFI81:
	.cfi_def_cfa_offset 6
	.cfi_offset 19, -5
	push r20
.LCFI82:
	.cfi_def_cfa_offset 7
	.cfi_offset 20, -6
	push r21
.LCFI83:
	.cfi_def_cfa_offset 8
	.cfi_offset 21, -7
	push r22
.LCFI84:
	.cfi_def_cfa_offset 9
	.cfi_offset 22, -8
	push r23
.LCFI85:
	.cfi_def_cfa_offset 10
	.cfi_offset 23, -9
	push r24
.LCFI86:
	.cfi_def_cfa_offset 11
	.cfi_offset 24, -10
	push r25
.LCFI87:
	.cfi_def_cfa_offset 12
	.cfi_offset 25, -11
	push r26
.LCFI88:
	.cfi_def_cfa_offset 13
	.cfi_offset 26, -12
	push r27
.LCFI89:
	.cfi_def_cfa_offset 14
	.cfi_offset 27, -13
	push r30
.LCFI90:
	.cfi_def_cfa_offset 15
	.cfi_offset 30, -14
	push r31
.LCFI91:
	.cfi_def_cfa_offset 16
	.cfi_offset 31, -15
/* prologue: Signal */
/* frame size = 0 */
/* stack size = 16 */
.L__stack_usage = 16
	.loc 3 371 0
	call sboxnet_timer_bit
.LVL305:
/* epilogue start */
	.loc 3 372 0
	pop r31
	pop r30
	pop r27
	pop r26
	pop r25
	pop r24
	pop r23
	pop r22
	pop r21
	pop r20
	pop r19
	pop r18
	pop r0
	out __RAMPZ__,r0
	pop r0
	out __SREG__,r0
	pop r0
	pop r1
	reti
	.cfi_endproc
.LFE79:
	.size	__vector_49, .-__vector_49
.global	__vector_47
	.type	__vector_47, @function
__vector_47:
.LFB80:
	.loc 3 379 0
	.cfi_startproc
	push r1
.LCFI92:
	.cfi_def_cfa_offset 3
	.cfi_offset 1, -2
	push r0
.LCFI93:
	.cfi_def_cfa_offset 4
	.cfi_offset 0, -3
	in r0,__SREG__
	push r0
	clr __zero_reg__
	in r0,__RAMPZ__
	push r0
	push r24
.LCFI94:
	.cfi_def_cfa_offset 5
	.cfi_offset 24, -4
	push r25
.LCFI95:
	.cfi_def_cfa_offset 6
	.cfi_offset 25, -5
	push r30
.LCFI96:
	.cfi_def_cfa_offset 7
	.cfi_offset 30, -6
	push r31
.LCFI97:
	.cfi_def_cfa_offset 8
	.cfi_offset 31, -7
/* prologue: Signal */
/* frame size = 0 */
/* stack size = 8 */
.L__stack_usage = 8
	.loc 3 381 0
	ldi r30,lo8(g_v)
	ldi r31,hi8(g_v)
	ldd r24,Z+5
	subi r24,lo8(-(1))
	std Z+5,r24
	.loc 3 383 0
	ldd r24,Z+6
	tst r24
	breq .L175
	.loc 3 384 0
	ldd r24,Z+6
	subi r24,lo8(-(-1))
	std Z+6,r24
.L175:
	.loc 3 389 0
	lds r24,g_v+8
	tst r24
	breq .L176
	.loc 3 390 0
	ldi r30,lo8(g_v)
	ldi r31,hi8(g_v)
	ldd r24,Z+8
	subi r24,lo8(-(-1))
	std Z+8,r24
.L176:
	.loc 3 395 0
	lds r24,g_v+9
	tst r24
	breq .L177
	.loc 3 396 0
	ldi r30,lo8(g_v)
	ldi r31,hi8(g_v)
	ldd r24,Z+9
	subi r24,lo8(-(-1))
	std Z+9,r24
.L177:
	.loc 3 400 0
	lds r24,g_v+7
	tst r24
	breq .L178
	.loc 3 402 0
	ldi r24,lo8(g_dev_state)
	ldi r25,hi8(g_dev_state)
	sbiw r24,32
	brsh .L179
	.loc 3 402 0 is_stmt 0 discriminator 1
	lds r24,g_dev_state
	andi r24,lo8(-33)
	sts g_dev_state,r24
	rjmp .L180
.L179:
.LBB547:
	.loc 3 402 0 is_stmt 1 discriminator 2
	in r25,__SREG__
.LVL306:
.LBB548:
.LBB549:
	.loc 5 50 0 discriminator 2
/* #APP */
 ;  50 "c:\program files (x86)\atmel\studio\7.0\toolchain\avr8\avr8-gnu-toolchain\avr\include\util\atomic.h" 1
	cli
 ;  0 "" 2
.LVL307:
/* #NOAPP */
.LBE549:
.LBE548:
	.loc 3 402 0 discriminator 2
	lds r24,g_dev_state
	andi r24,lo8(-33)
	sts g_dev_state,r24
.LVL308:
.LBB550:
.LBB551:
	.loc 5 70 0 discriminator 2
	out __SREG__,r25
	.loc 5 71 0 discriminator 2
.LVL309:
.L180:
.LBE551:
.LBE550:
.LBE547:
	.loc 3 404 0
	ldi r30,lo8(g_v)
	ldi r31,hi8(g_v)
	ldd r24,Z+7
	subi r24,lo8(-(-1))
	std Z+7,r24
	rjmp .L174
.L178:
	.loc 3 407 0
	ldi r24,lo8(g_dev_state)
	ldi r25,hi8(g_dev_state)
	sbiw r24,32
	brsh .L182
	.loc 3 407 0 is_stmt 0 discriminator 1
	lds r24,g_dev_state
	ori r24,lo8(32)
	sts g_dev_state,r24
	rjmp .L174
.L182:
.LBB552:
	.loc 3 407 0 is_stmt 1 discriminator 2
	in r25,__SREG__
.LVL310:
.LBB553:
.LBB554:
	.loc 5 50 0 discriminator 2
/* #APP */
 ;  50 "c:\program files (x86)\atmel\studio\7.0\toolchain\avr8\avr8-gnu-toolchain\avr\include\util\atomic.h" 1
	cli
 ;  0 "" 2
.LVL311:
/* #NOAPP */
.LBE554:
.LBE553:
	.loc 3 407 0 discriminator 2
	lds r24,g_dev_state
	ori r24,lo8(32)
	sts g_dev_state,r24
.LVL312:
.LBB555:
.LBB556:
	.loc 5 70 0 discriminator 2
	out __SREG__,r25
	.loc 5 71 0 discriminator 2
.LVL313:
.L174:
/* epilogue start */
.LBE556:
.LBE555:
.LBE552:
	.loc 3 409 0
	pop r31
	pop r30
	pop r25
	pop r24
	pop r0
	out __RAMPZ__,r0
	pop r0
	out __SREG__,r0
	pop r0
	pop r1
	reti
	.cfi_endproc
.LFE80:
	.size	__vector_47, .-__vector_47
	.section	.text.timer_register,"ax",@progbits
.global	timer_register
	.type	timer_register, @function
timer_register:
.LFB81:
	.loc 3 411 0
	.cfi_startproc
.LVL314:
/* prologue: function */
/* frame size = 0 */
/* stack size = 0 */
.L__stack_usage = 0
	.loc 3 412 0
	cpi r22,lo8(1)
	brne .L184
	.loc 3 413 0
	ldi r30,lo8(g_com)
	ldi r31,hi8(g_com)
	ldd r18,Z+15
	ldd r19,Z+16
	movw r26,r24
	st X+,r18
	st X,r19
	.loc 3 414 0
	std Z+15,r24
	std Z+16,r25
	rjmp .L185
.L184:
	.loc 3 416 0
	ldi r30,lo8(g_com)
	ldi r31,hi8(g_com)
	ldd r18,Z+13
	ldd r19,Z+14
	movw r26,r24
	st X+,r18
	st X,r19
	.loc 3 417 0
	std Z+13,r24
	std Z+14,r25
.L185:
	.loc 3 419 0
	movw r30,r24
	std Z+2,__zero_reg__
	ret
	.cfi_endproc
.LFE81:
	.size	timer_register, .-timer_register
	.section	.text.timer_timedout,"ax",@progbits
.global	timer_timedout
	.type	timer_timedout, @function
timer_timedout:
.LFB82:
	.loc 3 422 0
	.cfi_startproc
.LVL315:
/* prologue: function */
/* frame size = 0 */
/* stack size = 0 */
.L__stack_usage = 0
	.loc 3 423 0
	ldi r18,lo8(1)
	movw r30,r24
	ldd r24,Z+2
.LVL316:
	cpse r24,__zero_reg__
	ldi r18,0
.L187:
	.loc 3 424 0
	mov r24,r18
	ret
	.cfi_endproc
.LFE82:
	.size	timer_timedout, .-timer_timedout
	.section	.text.timer_set,"ax",@progbits
.global	timer_set
	.type	timer_set, @function
timer_set:
.LFB83:
	.loc 3 426 0
	.cfi_startproc
.LVL317:
/* prologue: function */
/* frame size = 0 */
/* stack size = 0 */
.L__stack_usage = 0
	.loc 3 427 0
	movw r30,r24
	std Z+2,r22
	ret
	.cfi_endproc
.LFE83:
	.size	timer_set, .-timer_set
	.section	.bldrapp
	.type	_bldr_process_basic_msg, @function
_bldr_process_basic_msg:
.LFB86:
	.loc 3 574 0
	.cfi_startproc
.LVL318:
	push r14
.LCFI98:
	.cfi_def_cfa_offset 3
	.cfi_offset 14, -2
	push r15
.LCFI99:
	.cfi_def_cfa_offset 4
	.cfi_offset 15, -3
	push r16
.LCFI100:
	.cfi_def_cfa_offset 5
	.cfi_offset 16, -4
	push r17
.LCFI101:
	.cfi_def_cfa_offset 6
	.cfi_offset 17, -5
	push r28
.LCFI102:
	.cfi_def_cfa_offset 7
	.cfi_offset 28, -6
	push r29
.LCFI103:
	.cfi_def_cfa_offset 8
	.cfi_offset 29, -7
/* prologue: function */
/* frame size = 0 */
/* stack size = 6 */
.L__stack_usage = 6
	movw r30,r24
	.loc 3 575 0
	ldd r25,Z+4
	cpi r25,lo8(22)
	brne .+2
	rjmp .L191
	brsh .L192
	cpi r25,lo8(18)
	brne .+2
	rjmp .L193
	rjmp .L190
.L192:
	cpi r25,lo8(24)
	breq .L194
	cpi r25,lo8(25)
	brne .+2
	rjmp .L215
.L190:
	.loc 3 714 0
	ldi r24,lo8(2)
.LVL319:
	rjmp .L195
.LVL320:
.L194:
.LBB557:
	.loc 3 583 0
	ldd r24,Z+3
.LVL321:
	andi r24,lo8(63)
.LVL322:
	.loc 3 587 0
	ldi r18,lo8(g_dev_state)
	ldi r19,hi8(g_dev_state)
	cpi r18,32
	cpc r19,__zero_reg__
	brsh .L196
	.loc 3 587 0 is_stmt 0 discriminator 1
	lds r25,g_dev_state
	.loc 3 588 0 is_stmt 1 discriminator 1
	andi r25,lo8(-7)
	sts g_dev_state,r25
	rjmp .L197
.L196:
.LBB558:
	.loc 3 587 0 discriminator 2
	in r18,__SREG__
.LVL323:
.LBB559:
.LBB560:
	.loc 5 50 0 discriminator 2
/* #APP */
 ;  50 "c:\program files (x86)\atmel\studio\7.0\toolchain\avr8\avr8-gnu-toolchain\avr\include\util\atomic.h" 1
	cli
 ;  0 "" 2
.LVL324:
/* #NOAPP */
.LBE560:
.LBE559:
	.loc 3 587 0 discriminator 2
	lds r25,g_dev_state
	andi r25,lo8(-3)
	sts g_dev_state,r25
.LVL325:
.LBB561:
.LBB562:
	.loc 5 70 0 discriminator 2
	out __SREG__,r18
	.loc 5 71 0 discriminator 2
.LVL326:
.LBE562:
.LBE561:
.LBE558:
.LBB563:
	.loc 3 588 0 discriminator 2
	in r18,__SREG__
.LVL327:
.LBB564:
.LBB565:
	.loc 5 50 0 discriminator 2
/* #APP */
 ;  50 "c:\program files (x86)\atmel\studio\7.0\toolchain\avr8\avr8-gnu-toolchain\avr\include\util\atomic.h" 1
	cli
 ;  0 "" 2
.LVL328:
/* #NOAPP */
.LBE565:
.LBE564:
	.loc 3 588 0 discriminator 2
	lds r25,g_dev_state
	andi r25,lo8(-5)
	sts g_dev_state,r25
.LVL329:
.LBB566:
.LBB567:
	.loc 5 70 0 discriminator 2
	out __SREG__,r18
	.loc 5 71 0 discriminator 2
.LVL330:
.L197:
.LBE567:
.LBE566:
.LBE563:
	.loc 3 595 0
	cpi r24,lo8(35)
	breq .+2
	rjmp .L216
	.loc 3 599 0
	ldd r18,Z+5
	ldd r19,Z+6
.LVL331:
	.loc 3 603 0
	ldd r24,Z+8
	ldd r25,Z+9
	ldd r26,Z+10
	ldd r27,Z+11
.LVL332:
	cpi r24,83
	ldi r20,98
	cpc r25,r20
	ldi r20,110
	cpc r26,r20
	ldi r20,66
	cpc r27,r20
	brne .L198
	.loc 3 605 0
	ldd r24,Z+7
	.loc 3 605 0
	sbrc r24,0
	rjmp .L217
	.loc 3 609 0
	cp r18,__zero_reg__
	ldi r22,30
	cpc r19,r22
	breq .+2
	rjmp .L218
	.loc 3 613 0
	ldi r24,lo8(g_dev_state)
	ldi r25,hi8(g_dev_state)
	sbiw r24,32
	brsh .L199
	.loc 3 613 0 is_stmt 0 discriminator 1
	lds r24,g_dev_state
	ori r24,lo8(2)
	sts g_dev_state,r24
	rjmp .L200
.L199:
.LBB568:
	.loc 3 613 0 is_stmt 1 discriminator 2
	in r25,__SREG__
.LVL333:
.LBB569:
.LBB570:
	.loc 5 50 0 discriminator 2
/* #APP */
 ;  50 "c:\program files (x86)\atmel\studio\7.0\toolchain\avr8\avr8-gnu-toolchain\avr\include\util\atomic.h" 1
	cli
 ;  0 "" 2
.LVL334:
/* #NOAPP */
.LBE570:
.LBE569:
	.loc 3 613 0 discriminator 2
	lds r24,g_dev_state
	ori r24,lo8(2)
	sts g_dev_state,r24
.LVL335:
.LBB571:
.LBB572:
	.loc 5 70 0 discriminator 2
	out __SREG__,r25
	.loc 5 71 0 discriminator 2
.LVL336:
	rjmp .L200
.LVL337:
.L198:
.LBE572:
.LBE571:
.LBE568:
	.loc 3 616 0
	cpi r24,83
	sbci r25,98
	sbci r26,110
	sbci r27,65
	breq .+2
	rjmp .L200
.LBB573:
	.loc 3 618 0
	ldd r24,Z+7
	.loc 3 618 0
	sbrs r24,0
	rjmp .L219
.LBB574:
	.loc 3 622 0 discriminator 1
	ldi r26,lo8(-49)
	ldi r27,lo8(1)
.L227:
	ld r24,X
	.loc 3 622 0 discriminator 1
	tst r24
	brlt .L227
	.loc 3 622 0 discriminator 2
	ldi r26,lo8(-52)
	ldi r27,lo8(1)
	ld r24,X
	ori r24,lo8(8)
	st X,r24
	.loc 3 622 0 discriminator 2
	lds r20,4869
	lds r21,4869+1
.LVL338:
.LBE574:
.LBB575:
	.loc 3 624 0 discriminator 2
	ldi r26,lo8(-49)
	ldi r27,lo8(1)
.L202:
	.loc 3 624 0 is_stmt 0 discriminator 1
	ld r24,X
	.loc 3 624 0 is_stmt 1 discriminator 1
	tst r24
	brlt .L202
	.loc 3 624 0 discriminator 2
	ldi r26,lo8(-52)
	ldi r27,lo8(1)
	ld r24,X
	ori r24,lo8(8)
	st X,r24
	.loc 3 624 0 discriminator 2
	lds r24,4871
	lds r25,4871+1
.LVL339:
.LBE575:
	.loc 3 626 0 discriminator 2
	cpi r20,-1
	ldi r29,-1
	cpc r21,r29
	brne .L203
	.loc 3 626 0 is_stmt 0 discriminator 1
	cpi r24,-1
	ldi r22,-1
	cpc r25,r22
	breq .L204
.L203:
	.loc 3 630 0 is_stmt 1
	ldd r22,Z+12
	ldd r23,Z+13
	cp r20,r22
	cpc r21,r23
	breq .+2
	rjmp .L220
	.loc 3 630 0 is_stmt 0 discriminator 1
	ldd r20,Z+14
	ldd r21,Z+15
.LVL340:
	cp r24,r20
	cpc r25,r21
	breq .+2
	rjmp .L221
.L204:
	.loc 3 634 0 is_stmt 1
	movw r24,r18
.LVL341:
	sbiw r24,1
	cpi r24,-1
	sbci r25,-17
	brlo .+2
	rjmp .L222
	.loc 3 638 0
	ldi r24,lo8(g_dev_state)
	ldi r25,hi8(g_dev_state)
	sbiw r24,32
	brsh .L205
	.loc 3 638 0 is_stmt 0 discriminator 1
	lds r24,g_dev_state
	ori r24,lo8(4)
	sts g_dev_state,r24
.LVL342:
	rjmp .L200
.LVL343:
.L205:
.LBB576:
	.loc 3 638 0 is_stmt 1 discriminator 2
	in r25,__SREG__
.LVL344:
.LBB577:
.LBB578:
	.loc 5 50 0 discriminator 2
/* #APP */
 ;  50 "c:\program files (x86)\atmel\studio\7.0\toolchain\avr8\avr8-gnu-toolchain\avr\include\util\atomic.h" 1
	cli
 ;  0 "" 2
.LVL345:
/* #NOAPP */
.LBE578:
.LBE577:
	.loc 3 638 0 discriminator 2
	lds r24,g_dev_state
	ori r24,lo8(4)
	sts g_dev_state,r24
.LVL346:
.LBB579:
.LBB580:
	.loc 5 70 0 discriminator 2
	out __SREG__,r25
	.loc 5 71 0 discriminator 2
.LVL347:
.L200:
	movw r14,r30
.LBE580:
.LBE579:
.LBE576:
.LBE573:
	.loc 3 601 0
	movw r28,r30
	adiw r28,8
	.loc 3 642 0
	ldi r30,lo8(g_v)
	ldi r31,hi8(g_v)
.LVL348:
	std Z+16,__zero_reg__
	std Z+17,__zero_reg__
	.loc 3 643 0
	std Z+18,__zero_reg__
	std Z+19,__zero_reg__
	.loc 3 644 0
	std Z+20,r18
	std Z+21,r19
.LVL349:
	movw r16,r14
	subi r16,-40
	sbci r17,-1
	.loc 3 647 0
	ldi r24,lo8(-1)
	ldi r25,lo8(-1)
.LVL350:
.L206:
.LBB581:
	.loc 3 651 0 discriminator 3
	ld r22,Y+
.LVL351:
	call crc_ccitt_update
.LVL352:
	.loc 3 650 0 discriminator 3
	cp r28,r16
	cpc r29,r17
	brne .L206
.LBE581:
	.loc 3 654 0
	sts g_v+22,r24
	sts g_v+22+1,r25
	.loc 3 656 0
	movw r30,r14
	ldd r24,Z+3
.LVL353:
	andi r24,lo8(-64)
	std Z+3,r24
.LVL354:
	.loc 3 657 0
	ldi r24,0
	rjmp .L195
.LVL355:
.L193:
.LBE557:
.LBB583:
	.loc 3 671 0
	ldd r24,Z+3
.LVL356:
	andi r24,lo8(63)
	ldi r25,0
	sbiw r24,2
	brlt .+2
	rjmp .L223
	.loc 3 675 0
	ldd r24,Z+3
	andi r24,lo8(63)
	cpi r24,lo8(1)
	brne .L224
	.loc 3 676 0
	ldd r28,Z+5
.LVL357:
	.loc 3 679 0
	cpi r28,lo8(3)
	brlo .+2
	rjmp .L225
	rjmp .L207
.LVL358:
.L224:
	.loc 3 669 0
	ldi r28,0
.LVL359:
.L207:
	movw r22,r30
	subi r22,-5
	sbci r23,-1
	ldi r20,lo8(32)
	mul r28,r20
	movw r28,r0
	clr __zero_reg__
.LVL360:
	movw r16,r28
	subi r16,-64
	sbci r17,-20
	.loc 3 685 0
	ldi r18,0
.LBB584:
.LBB585:
	.loc 3 687 0
	ldi r26,lo8(-49)
	ldi r27,lo8(1)
	.loc 3 687 0
	ldi r20,lo8(-52)
	ldi r21,lo8(1)
.LVL361:
.L208:
	.loc 3 687 0 discriminator 1
	ld r25,X
	.loc 3 687 0 discriminator 1
	tst r25
	brlt .L208
	.loc 3 687 0 discriminator 2
	movw r28,r20
	ld r24,Y
	ori r24,lo8(8)
	st Y,r24
	.loc 3 687 0 discriminator 2
	movw r28,r16
	ld r24,Y+
	movw r16,r28
.LVL362:
.LBE585:
	.loc 3 688 0 discriminator 2
	ldi r25,lo8(-1)
	add r25,r24
	cpi r25,lo8(-2)
	brsh .L209
	.loc 3 691 0
	subi r18,lo8(-(1))
.LVL363:
	movw r28,r22
	st Y+,r24
	movw r22,r28
.LBE584:
	.loc 3 686 0
	cpi r18,lo8(32)
	brne .L208
.L209:
	.loc 3 693 0
	andi r18,lo8(63)
.LVL364:
	ldd r24,Z+3
.LVL365:
	andi r24,lo8(-64)
	or r18,r24
	std Z+3,r18
	.loc 3 694 0
	ldi r24,0
	rjmp .L195
.LVL366:
.L191:
.LBE583:
.LBB586:
	.loc 3 700 0
	ldd r24,Z+3
.LVL367:
	andi r24,lo8(63)
	cpi r24,lo8(1)
	breq .+2
	rjmp .L226
.LVL368:
	.loc 3 705 0
	ldd r24,Z+5
	sbrs r24,0
	rjmp .L211
	.loc 3 706 0
	ldi r24,lo8(g_dev_state)
	ldi r25,hi8(g_dev_state)
	sbiw r24,32
	brsh .L212
	.loc 3 706 0 is_stmt 0 discriminator 1
	lds r24,g_dev_state
	ori r24,lo8(16)
	sts g_dev_state,r24
	rjmp .L213
.L212:
.LBB587:
	.loc 3 706 0 is_stmt 1 discriminator 2
	in r25,__SREG__
.LVL369:
.LBB588:
.LBB589:
	.loc 5 50 0 discriminator 2
/* #APP */
 ;  50 "c:\program files (x86)\atmel\studio\7.0\toolchain\avr8\avr8-gnu-toolchain\avr\include\util\atomic.h" 1
	cli
 ;  0 "" 2
.LVL370:
/* #NOAPP */
.LBE589:
.LBE588:
	.loc 3 706 0 discriminator 2
	lds r24,g_dev_state
	ori r24,lo8(16)
	sts g_dev_state,r24
.LVL371:
.LBB590:
.LBB591:
	.loc 5 70 0 discriminator 2
	out __SREG__,r25
.LVL372:
	.loc 5 71 0 discriminator 2
.LVL373:
	rjmp .L213
.LVL374:
.L211:
.LBE591:
.LBE590:
.LBE587:
	.loc 3 708 0
	ldi r24,lo8(g_dev_state)
	ldi r25,hi8(g_dev_state)
.LVL375:
	sbiw r24,32
	brsh .L214
	.loc 3 708 0 is_stmt 0 discriminator 1
	lds r24,g_dev_state
	andi r24,lo8(-17)
	sts g_dev_state,r24
	rjmp .L213
.L214:
.LBB592:
	.loc 3 708 0 is_stmt 1 discriminator 2
	in r25,__SREG__
.LVL376:
.LBB593:
.LBB594:
	.loc 5 50 0 discriminator 2
/* #APP */
 ;  50 "c:\program files (x86)\atmel\studio\7.0\toolchain\avr8\avr8-gnu-toolchain\avr\include\util\atomic.h" 1
	cli
 ;  0 "" 2
.LVL377:
/* #NOAPP */
.LBE594:
.LBE593:
	.loc 3 708 0 discriminator 2
	lds r24,g_dev_state
	andi r24,lo8(-17)
	sts g_dev_state,r24
.LVL378:
.LBB595:
.LBB596:
	.loc 5 70 0 discriminator 2
	out __SREG__,r25
.LVL379:
	.loc 5 71 0 discriminator 2
.LVL380:
.L213:
.LBE596:
.LBE595:
.LBE592:
	.loc 3 710 0
	ldd r24,Z+3
	andi r24,lo8(-64)
	std Z+3,r24
	.loc 3 711 0
	ldi r24,0
	rjmp .L195
.LVL381:
.L215:
.LBE586:
	.loc 3 663 0
	ldi r24,lo8(101)
.LVL382:
	rjmp .L195
.LVL383:
.L216:
.LBB597:
	.loc 3 596 0
	ldi r24,lo8(3)
.LVL384:
	rjmp .L195
.LVL385:
.L217:
	.loc 3 606 0
	ldi r24,lo8(105)
	rjmp .L195
.L218:
	.loc 3 610 0
	ldi r24,lo8(102)
	rjmp .L195
.L219:
.LBB582:
	.loc 3 619 0
	ldi r24,lo8(105)
	rjmp .L195
.LVL386:
.L220:
	.loc 3 631 0
	ldi r24,lo8(104)
.LVL387:
	rjmp .L195
.LVL388:
.L221:
	ldi r24,lo8(104)
.LVL389:
	rjmp .L195
.L222:
	.loc 3 635 0
	ldi r24,lo8(102)
	rjmp .L195
.LVL390:
.L223:
.LBE582:
.LBE597:
.LBB598:
	.loc 3 672 0
	ldi r24,lo8(3)
	rjmp .L195
.LVL391:
.L225:
	.loc 3 680 0
	ldi r24,lo8(3)
	rjmp .L195
.LVL392:
.L226:
.LBE598:
.LBB599:
	.loc 3 701 0
	ldi r24,lo8(3)
.L195:
/* epilogue start */
.LBE599:
	.loc 3 715 0
	pop r29
	pop r28
	pop r17
	pop r16
	pop r15
	pop r14
	ret
	.cfi_endproc
.LFE86:
	.size	_bldr_process_basic_msg, .-_bldr_process_basic_msg
	.type	_bldr_reg_read, @function
_bldr_reg_read:
.LFB87:
	.loc 3 748 0
	.cfi_startproc
.LVL393:
/* prologue: function */
/* frame size = 0 */
/* stack size = 0 */
.L__stack_usage = 0
	.loc 3 749 0
	cpi r24,10
	cpc r25,__zero_reg__
	brne .+2
	rjmp .L235
	brsh .L236
	cpi r24,4
	cpc r25,__zero_reg__
	brne .+2
	rjmp .L237
	brsh .L238
	cpi r24,1
	cpc r25,__zero_reg__
	brne .+2
	rjmp .L239
	brsh .+2
	rjmp .L240
	cpi r24,2
	cpc r25,__zero_reg__
	brne .+2
	rjmp .L241
	cpi r24,3
	cpc r25,__zero_reg__
	brne .+2
	rjmp .L242
	rjmp .L234
.L238:
	cpi r24,7
	cpc r25,__zero_reg__
	brne .+2
	rjmp .L243
	brsh .L244
	cpi r24,5
	cpc r25,__zero_reg__
	brne .+2
	rjmp .L245
	cpi r24,6
	cpc r25,__zero_reg__
	brne .+2
	rjmp .L246
	rjmp .L234
.L244:
	cpi r24,8
	cpc r25,__zero_reg__
	brne .+2
	rjmp .L247
	cpi r24,9
	cpc r25,__zero_reg__
	brne .+2
	rjmp .L248
	rjmp .L234
.L236:
	cpi r24,-44
	ldi r18,7
	cpc r25,r18
	brne .+2
	rjmp .L249
	brsh .L250
	cpi r24,-47
	ldi r26,7
	cpc r25,r26
	brne .+2
	rjmp .L251
	brsh .L252
	cpi r24,-48
	ldi r30,7
	cpc r25,r30
	brne .+2
	rjmp .L253
	rjmp .L234
.L252:
	cpi r24,-46
	ldi r31,7
	cpc r25,r31
	brne .+2
	rjmp .L254
	cpi r24,-45
	ldi r18,7
	cpc r25,r18
	brne .+2
	rjmp .L255
	rjmp .L234
.L250:
	cpi r24,-41
	ldi r20,7
	cpc r25,r20
	breq .L256
	brsh .L257
	cpi r24,-43
	ldi r27,7
	cpc r25,r27
	brne .+2
	rjmp .L258
	cpi r24,-42
	ldi r30,7
	cpc r25,r30
	brne .+2
	rjmp .L259
	rjmp .L234
.L257:
	cpi r24,-6
	ldi r31,7
	cpc r25,r31
	brne .+2
	rjmp .L260
	cpi r24,-5
	ldi r18,7
	cpc r25,r18
	brne .+2
	rjmp .L261
	rjmp .L234
.L256:
.LVL394:
.LBB610:
.LBB611:
	.loc 3 208 0
	ldi r24,lo8(_end)
	ldi r25,hi8(_end)
.LVL395:
	cpi r24,-2
	sbci r25,47
	brlo .+2
	rjmp .L270
	.loc 3 209 0
	lds r24,_end
	cpse r24,__zero_reg__
	rjmp .L271
	ldi r24,lo8(_end+1)
	ldi r25,hi8(_end+1)
	rjmp .L263
.LVL396:
.L240:
.LBE611:
.LBE610:
	.loc 3 750 0
	lds r24,g_v+1
	lds r25,g_v+1+1
.LVL397:
	movw r26,r22
	st X+,r24
	st X,r25
	ldi r24,0
	ret
.LVL398:
.L239:
	.loc 3 751 0
	lds r24,g_v+1
	lds r25,g_v+1+1
	lds r26,g_v+1+2
	lds r27,g_v+1+3
.LVL399:
	movw r30,r22
	st Z,r26
	std Z+1,r27
	ldi r24,0
	ret
.LVL400:
.L241:
.LBB613:
	.loc 3 752 0 discriminator 1
	ldi r30,lo8(-49)
	ldi r31,lo8(1)
.LVL401:
.L277:
	ld r24,Z
	.loc 3 752 0 discriminator 1
	tst r24
	brlt .L277
	.loc 3 752 0 discriminator 2
	ldi r30,lo8(-52)
	ldi r31,lo8(1)
	ld r24,Z
	ori r24,lo8(8)
	st Z,r24
	.loc 3 752 0 discriminator 2
	lds r24,4869
	lds r25,4869+1
.LBE613:
	.loc 3 752 0 discriminator 2
	movw r26,r22
	st X+,r24
	st X,r25
	.loc 3 752 0 discriminator 2
	ldi r24,0
	ret
.LVL402:
.L242:
.LBB614:
	.loc 3 753 0 discriminator 1
	ldi r30,lo8(-49)
	ldi r31,lo8(1)
.LVL403:
.L278:
	ld r24,Z
	.loc 3 753 0 discriminator 1
	tst r24
	brlt .L278
	.loc 3 753 0 discriminator 2
	ldi r30,lo8(-52)
	ldi r31,lo8(1)
	ld r24,Z
	ori r24,lo8(8)
	st Z,r24
	.loc 3 753 0 discriminator 2
	lds r24,4871
	lds r25,4871+1
.LBE614:
	.loc 3 753 0 discriminator 2
	movw r30,r22
	st Z,r24
	std Z+1,r25
	.loc 3 753 0 discriminator 2
	ldi r24,0
	ret
.LVL404:
.L237:
	.loc 3 754 0
	ldi r24,lo8(4)
	ldi r25,0
.LVL405:
	movw r26,r22
	st X+,r24
	st X,r25
	ldi r24,0
	ret
.LVL406:
.L245:
	.loc 3 755 0
	ldi r24,lo8(1)
	ldi r25,lo8(1)
.LVL407:
	movw r30,r22
	st Z,r24
	std Z+1,r25
	ldi r24,0
	ret
.LVL408:
.L246:
	.loc 3 756 0
	lds r24,g_v
.LVL409:
	ldi r25,0
	movw r26,r22
	st X+,r24
	st X,r25
	ldi r24,0
	ret
.LVL410:
.L243:
	.loc 3 757 0
	lds r24,g_dev_state
.LVL411:
	ldi r25,0
	movw r30,r22
	st Z,r24
	std Z+1,r25
	ldi r24,0
	ret
.LVL412:
.L247:
	.loc 3 758 0
	lds r25,g_dev_errflags
	lds r24,g_dev_errflags2
.LVL413:
	or r24,r25
	ldi r25,0
	movw r26,r22
	st X+,r24
	st X,r25
	ldi r24,0
	ret
.LVL414:
.L248:
.LBB615:
	.loc 3 759 0 discriminator 1
	ldi r30,lo8(-49)
	ldi r31,lo8(1)
.LVL415:
.L276:
	ld r24,Z
	.loc 3 759 0 discriminator 1
	tst r24
	brlt .L276
	.loc 3 759 0 discriminator 2
	ldi r30,lo8(-52)
	ldi r31,lo8(1)
	ld r24,Z
	ori r24,lo8(8)
	st Z,r24
.LBE615:
	.loc 3 759 0 discriminator 2
	lds r24,4864
	ldi r25,0
	movw r30,r22
	st Z,r24
	std Z+1,r25
	.loc 3 759 0 discriminator 2
	ldi r24,0
	ret
.LVL416:
.L235:
	.loc 3 760 0
	ldi r24,lo8(3)
	ldi r25,0
.LVL417:
	movw r26,r22
	st X+,r24
	st X,r25
	ldi r24,0
	ret
.LVL418:
.L253:
	.loc 3 762 0
	ldi r24,lo8(g_v-8192)
	ldi r25,hi8(g_v-8192)
.LVL419:
	movw r30,r22
	st Z,r24
	std Z+1,r25
	.loc 3 762 0
	ldi r24,0
	ret
.LVL420:
.L251:
	.loc 3 763 0
	movw r26,r22
	st X+,__zero_reg__
	st X,__zero_reg__
	ldi r24,0
.LVL421:
	ret
.LVL422:
.L254:
	.loc 3 764 0
	ldi r24,lo8(g_v-8164)
	ldi r25,hi8(g_v-8164)
.LVL423:
	movw r30,r22
	st Z,r24
	std Z+1,r25
	.loc 3 764 0
	ldi r24,0
	ret
.LVL424:
.L255:
	.loc 3 765 0
	ldi r24,0
	ldi r25,lo8(3)
.LVL425:
	movw r26,r22
	st X+,r24
	st X,r25
	ldi r24,0
	ret
.LVL426:
.L249:
	.loc 3 766 0
	ldi r24,0
	ldi r25,lo8(16)
.LVL427:
	movw r30,r22
	st Z,r24
	std Z+1,r25
	.loc 3 766 0
	ldi r24,0
	ret
.LVL428:
.L258:
	.loc 3 767 0
	ldi r24,0
	ldi r25,lo8(8)
.LVL429:
	movw r26,r22
	st X+,r24
	st X,r25
	.loc 3 767 0
	ldi r24,0
	ret
.LVL430:
.L259:
	.loc 3 768 0
	ldi r24,lo8(-2)
	ldi r25,lo8(47)
.LVL431:
	subi r24,lo8(_end)
	sbci r25,hi8(_end)
	movw r30,r22
	st Z,r24
	std Z+1,r25
	ldi r24,0
	ret
.LVL432:
.L265:
	adiw r24,1
.LVL433:
.LBB616:
.LBB612:
	.loc 3 209 0
	ld r18,Z
	cpse r18,__zero_reg__
	rjmp .L262
.LVL434:
.L263:
	.loc 3 212 0
	movw r30,r24
.LVL435:
	.loc 3 208 0
	cpi r24,-2
	ldi r18,47
	cpc r25,r18
	brne .L265
	rjmp .L262
.LVL436:
.L270:
	ldi r30,lo8(_end)
	ldi r31,hi8(_end)
	rjmp .L262
.L271:
	.loc 3 209 0
	ldi r30,lo8(_end)
	ldi r31,hi8(_end)
.LVL437:
.L262:
.LBE612:
.LBE616:
	.loc 3 769 0
	subi r30,lo8(_end)
	sbci r31,hi8(_end)
	movw r26,r22
	st X+,r30
	st X,r31
	ldi r24,0
	ret
.LVL438:
.L260:
	.loc 3 771 0
	lds r24,g_v+28
.LVL439:
	ldi r25,0
	movw r30,r22
	st Z,r24
	std Z+1,r25
	ldi r24,0
	ret
.LVL440:
.L261:
	.loc 3 772 0
	lds r24,g_v+29
.LVL441:
	ldi r25,0
	movw r26,r22
	st X+,r24
	st X,r25
	ldi r24,0
	ret
.LVL442:
.L234:
	.loc 3 774 0
	movw r18,r24
	subi r18,-38
	sbci r19,7
	cpi r18,32
	cpc r19,__zero_reg__
	brsh .L266
	.loc 3 775 0
	cpi r18,19
	cpc r19,__zero_reg__
	brsh .L267
	.loc 3 776 0
	lsl r24
	rol r25
.LVL443:
	movw r30,r24
	subi r30,lo8(-(g_v-3687))
	sbci r31,hi8(-(g_v-3687))
	ld r24,Z
	ldd r25,Z+1
	movw r30,r22
	st Z,r24
	std Z+1,r25
	.loc 3 780 0
	ldi r24,0
	ret
.LVL444:
.L267:
	.loc 3 778 0
	movw r26,r22
	st X+,__zero_reg__
	st X,__zero_reg__
	.loc 3 780 0
	ldi r24,0
.LVL445:
	ret
.LVL446:
.L266:
	.loc 3 782 0
	movw r18,r24
	subi r19,8
	cp r18,__zero_reg__
	sbci r19,8
	brsh .L268
.LBB617:
	.loc 3 783 0
	subi r25,-120
.LVL447:
	lsl r24
	rol r25
.LVL448:
	.loc 3 784 0
	cp r24,__zero_reg__
	ldi r30,8
	cpc r25,r30
	brsh .L272
.LBB618:
	.loc 3 785 0 discriminator 1
	ldi r30,lo8(-49)
	ldi r31,lo8(1)
.LVL449:
.L275:
	ld r18,Z
	.loc 3 785 0 discriminator 1
	tst r18
	brlt .L275
	.loc 3 785 0 discriminator 2
	ldi r30,lo8(-52)
	ldi r31,lo8(1)
	ld r18,Z
	ori r18,lo8(8)
	st Z,r18
	.loc 3 785 0 discriminator 2
	movw r30,r24
	subi r31,-16
	ld r24,Z
	ldd r25,Z+1
.LVL450:
.LBE618:
	.loc 3 785 0 discriminator 2
	movw r26,r22
	st X+,r24
	st X,r25
	.loc 3 786 0 discriminator 2
	ldi r24,0
	ret
.LVL451:
.L268:
.LBE617:
	.loc 3 790 0
	movw r18,r24
	subi r19,16
	cp r18,__zero_reg__
	sbci r19,16
	brsh .L273
.LBB619:
	.loc 3 791 0
	subi r25,-112
.LVL452:
	lsl r24
	rol r25
.LVL453:
	.loc 3 792 0
	cp r24,__zero_reg__
	ldi r30,16
	cpc r25,r30
	brsh .L274
	.loc 3 793 0
	movw r30,r24
	subi r31,-32
	ld r24,Z
	ldd r25,Z+1
.LVL454:
	movw r26,r22
	st X+,r24
	st X,r25
	.loc 3 794 0
	ldi r24,0
	ret
.LVL455:
.L272:
.LBE619:
.LBB620:
	.loc 3 788 0
	ldi r24,lo8(4)
.LVL456:
	ret
.LVL457:
.L273:
.LBE620:
	.loc 3 798 0
	ldi r24,lo8(4)
.LVL458:
	ret
.LVL459:
.L274:
.LBB621:
	.loc 3 796 0
	ldi r24,lo8(4)
.LVL460:
.LBE621:
	.loc 3 799 0
	ret
	.cfi_endproc
.LFE87:
	.size	_bldr_reg_read, .-_bldr_reg_read
	.type	_bldr_task, @function
_bldr_task:
.LFB97:
	.loc 3 1295 0
	.cfi_startproc
.LVL461:
	push r16
.LCFI104:
	.cfi_def_cfa_offset 3
	.cfi_offset 16, -2
	push r17
.LCFI105:
	.cfi_def_cfa_offset 4
	.cfi_offset 17, -3
	push r28
.LCFI106:
	.cfi_def_cfa_offset 5
	.cfi_offset 28, -4
	push r29
.LCFI107:
	.cfi_def_cfa_offset 6
	.cfi_offset 29, -5
	in r28,__SP_L__
	in r29,__SP_H__
.LCFI108:
	.cfi_def_cfa_register 28
	sbiw r28,9
.LCFI109:
	.cfi_def_cfa_offset 15
	out __SP_L__,r28
	out __SP_H__,r29
/* prologue: function */
/* frame size = 9 */
/* stack size = 13 */
.L__stack_usage = 13
	movw r16,r24
.LBB650:
.LBB651:
	.loc 3 442 0
	lds r24,g_v+9
.LVL462:
	cpse r24,__zero_reg__
	rjmp .L284
	.loc 3 448 0
	lds r24,1664
	.loc 3 448 0
	sbrc r24,1
	rjmp .L285
.LBB652:
	.loc 3 450 0
	ldi r30,lo8(g_v)
	ldi r31,hi8(g_v)
	ldi r24,lo8(10)
	std Z+9,r24
	.loc 3 452 0
	lds r25,1672
	.loc 3 452 0
	lsr r25
	andi r25,1
	ldi r24,lo8(1)
	eor r25,r24
.LVL463:
	.loc 3 454 0
	ldi r24,lo8(2)
	sts 1665,r24
.LVL464:
.LBB653:
.LBB654:
.LBB655:
	.file 7 ".././common.h"
	.loc 7 438 0
	ldd r24,Z+14
	eor r24,r25
.LVL465:
	.loc 7 441 0
	ldd r18,Z+13
	and r18,r24
	com r24
.LVL466:
	and r24,r25
.LVL467:
	or r24,r18
	std Z+13,r24
	.loc 7 443 0
	std Z+14,r25
.LVL468:
	rjmp .L284
.LVL469:
.L285:
.LBE655:
.LBE654:
.LBE653:
.LBE652:
	.loc 3 459 0
	ldi r24,lo8(1)
	sts g_v+9,r24
	.loc 3 461 0
	ldi r24,lo8(2)
	sts 1666,r24
.L284:
	.loc 3 466 0
	lds r24,g_v+8
	cpse r24,__zero_reg__
	rjmp .L286
.LBB656:
	.loc 3 467 0
	ldi r30,lo8(g_v)
	ldi r31,hi8(g_v)
	ldi r24,lo8(32)
	std Z+8,r24
	.loc 3 470 0
	ldd r24,Z+13
	.loc 3 470 0
	sbrs r24,0
	rjmp .L287
	.loc 3 472 0
	lds r24,g_v+15
	.loc 3 472 0
	sbrc r24,0
	rjmp .L288
	.loc 3 474 0
	ldd r24,Z+15
	ori r24,lo8(1)
	std Z+15,r24
.LBB657:
	.loc 3 475 0
	in r25,__SREG__
.LVL470:
.LBB658:
.LBB659:
	.loc 5 50 0
/* #APP */
 ;  50 "c:\program files (x86)\atmel\studio\7.0\toolchain\avr8\avr8-gnu-toolchain\avr\include\util\atomic.h" 1
	cli
 ;  0 "" 2
.LVL471:
/* #NOAPP */
.LBE659:
.LBE658:
	.loc 3 477 0
	lds r18,g_dev_state
	ldi r24,lo8(16)
	eor r24,r18
	sts g_dev_state,r24
.LVL472:
.LBB660:
.LBB661:
	.loc 5 70 0
	out __SREG__,r25
	.loc 5 71 0
.LVL473:
	rjmp .L288
.LVL474:
.L287:
.LBE661:
.LBE660:
.LBE657:
	.loc 3 482 0
	ldi r30,lo8(g_v)
	ldi r31,hi8(g_v)
	ldd r24,Z+15
	andi r24,lo8(-2)
	std Z+15,r24
.L288:
	.loc 3 486 0
	lds r24,g_dev_state
	std Y+9,r24
	.loc 3 487 0
	lds r24,g_v+12
	std Y+8,r24
	.loc 3 488 0
	ldd r25,Y+9
	ldd r24,Y+8
	cp r25,r24
	breq .L289
	.loc 3 490 0
	ldd r24,Y+9
	sts g_v+12,r24
	.loc 3 493 0
	ldd r24,Y+9
	.loc 3 493 0
	sbrs r24,4
	rjmp .L290
	.loc 3 495 0
	ldi r30,lo8(g_v)
	ldi r31,hi8(g_v)
	ldi r24,lo8(-86)
	std Z+10,r24
	.loc 3 496 0
	ldi r24,lo8(85)
	std Z+11,r24
	rjmp .L289
.L290:
	.loc 3 498 0
	ldd r24,Y+9
	.loc 3 498 0
	sbrs r24,3
	rjmp .L291
	.loc 3 500 0
	ldi r30,lo8(g_v)
	ldi r31,hi8(g_v)
	std Z+10,__zero_reg__
	.loc 3 501 0
	ldi r24,lo8(85)
	std Z+11,r24
	rjmp .L289
.L291:
	.loc 3 509 0
	ldd r24,Y+9
	.loc 3 509 0
	sbrs r24,0
	rjmp .L292
	.loc 3 511 0
	ldi r30,lo8(g_v)
	ldi r31,hi8(g_v)
	ldi r24,lo8(62)
	std Z+10,r24
	.loc 3 512 0
	std Z+11,__zero_reg__
	rjmp .L289
.L292:
	.loc 3 515 0
	ldi r30,lo8(g_v)
	ldi r31,hi8(g_v)
	ldi r24,lo8(24)
	std Z+10,r24
	.loc 3 516 0
	std Z+11,__zero_reg__
.L289:
	.loc 3 526 0
	lds r24,g_dev_errflags
	cpse r24,__zero_reg__
	rjmp .L293
	lds r24,g_dev_errflags2
	tst r24
	breq .L294
.L293:
	.loc 3 528 0
	ldi r24,lo8(-1)
	sts g_v+11,r24
.L294:
	.loc 3 533 0
	ldi r30,lo8(g_v)
	ldi r31,hi8(g_v)
	ldd r24,Z+10
.LVL475:
.LBB662:
.LBB663:
	.loc 6 122 0
	lsl r24
	adc r24,__zero_reg__
.LVL476:
.LBE663:
.LBE662:
	.loc 3 533 0
	std Z+10,r24
	.loc 3 534 0
	tst r24
	brge .L295
	.loc 3 535 0
	ldi r24,lo8(1)
	sts 1670,r24
	rjmp .L296
.L295:
	.loc 3 537 0
	ldi r24,lo8(1)
	sts 1669,r24
.L296:
	.loc 3 540 0
	ldi r30,lo8(g_v)
	ldi r31,hi8(g_v)
	ldd r24,Z+11
.LVL477:
.LBB664:
.LBB665:
	.loc 6 122 0
	lsl r24
	adc r24,__zero_reg__
.LVL478:
.LBE665:
.LBE664:
	.loc 3 540 0
	std Z+11,r24
	.loc 3 541 0
	tst r24
	brge .L297
	.loc 3 542 0
	ldi r24,lo8(2)
	sts 1670,r24
	rjmp .L286
.L297:
	.loc 3 544 0
	ldi r24,lo8(2)
	sts 1669,r24
.L286:
.LBE656:
.LBE651:
.LBE650:
	.loc 3 1300 0
	lds r25,g_dev_state
	.loc 3 1300 0
	mov r24,r25
	andi r24,lo8(64)
	sbrs r25,6
	rjmp .L298
	.loc 3 1302 0
	call sboxnet_all_sent
.LVL479:
.L299:
	.loc 3 1302 0 is_stmt 0 discriminator 1
	tst r24
	breq .L299
.LVL480:
.LBB666:
	.loc 3 1304 0 is_stmt 1
	.loc 3 1304 0
	ldi r24,lo8(-40)
	out __CCP__,r24
	.loc 3 1304 0
	ldi r24,lo8(1)
	sts 121,r24
.L300:
	rjmp .L300
.LVL481:
.L298:
.LBE666:
	.loc 3 1309 0
	lds r25,g_dev_state
	std Y+1,r25
.LVL482:
	.loc 3 1311 0
	ldd r25,Y+1
	.loc 3 1311 0
	sbrs r25,3
	rjmp .L301
.LBB667:
.LBB668:
.LBB669:
	.loc 3 1232 0
	ldi r30,lo8(-49)
	ldi r31,lo8(1)
.L310:
	ld r24,Z
	.loc 3 1232 0
	tst r24
	brlt .L310
	.loc 3 1232 0
	ldi r30,lo8(-52)
	ldi r31,lo8(1)
	ld r24,Z
	ori r24,lo8(8)
	st Z,r24
	.loc 3 1232 0
	lds r24,4869
	lds r25,4869+1
.LBE669:
	.loc 3 1232 0
	std Y+4,r24
	std Y+5,r25
.LBB670:
	.loc 3 1233 0
	ldi r30,lo8(-49)
	ldi r31,lo8(1)
.L303:
	ld r24,Z
	.loc 3 1233 0
	tst r24
	brlt .L303
	.loc 3 1233 0
	ldi r30,lo8(-52)
	ldi r31,lo8(1)
	ld r24,Z
	ori r24,lo8(8)
	st Z,r24
	.loc 3 1233 0
	lds r24,4871
	lds r25,4871+1
.LBE670:
	.loc 3 1233 0
	std Y+2,r24
	std Y+3,r25
	.loc 3 1236 0
	ldi r22,lo8(69)
	movw r24,r16
	call sboxnet_receive_msg
.LVL483:
	std Y+7,r24
	.loc 3 1237 0
	ldd r24,Y+7
	cp __zero_reg__,r24
	brlt .+2
	rjmp .L304
	.loc 3 1240 0
	movw r30,r16
	ldd r24,Z+1
	cpse r24,__zero_reg__
	rjmp .L304
	.loc 3 1242 0
	lds r24,g_v+7
	cpse r24,__zero_reg__
	rjmp .L305
	.loc 3 1243 0
	call bldr_random
.LVL484:
	andi r24,lo8(31)
	subi r24,lo8(-(1))
	sts g_v+6,r24
.L305:
	.loc 3 1245 0
	ldi r24,lo8(-128)
	sts g_v+7,r24
	.loc 3 1249 0
	movw r30,r16
	ldd r24,Z+1
	cpse r24,__zero_reg__
	rjmp .L304
	ld r24,Z
	cpi r24,lo8(-1)
	breq .+2
	rjmp .L304
	ldd r24,Z+4
	cpi r24,lo8(17)
	breq .+2
	rjmp .L304
.LVL485:
.LBB671:
	.loc 3 1251 0
	ldd r24,Z+3
	andi r24,lo8(63)
	cpi r24,lo8(9)
	breq .+2
	rjmp .L304
	ldd r20,Z+5
	ldd r21,Z+6
	ldd r22,Z+7
	ldd r23,Z+8
	lds r24,g_v+1
	lds r25,g_v+1+1
	lds r26,g_v+1+2
	lds r27,g_v+1+3
	cp r20,r24
	cpc r21,r25
	cpc r22,r26
	cpc r23,r27
	brne .L304
	ldd r24,Y+4
	ldd r25,Y+5
	ldd r18,Z+9
	ldd r19,Z+10
	cp r18,r24
	cpc r19,r25
	brne .L304
	ldd r24,Y+2
	ldd r25,Y+3
	ldd r18,Z+11
	ldd r19,Z+12
	cp r18,r24
	cpc r19,r25
	brne .L304
.LVL486:
.LBB672:
	.loc 3 1253 0
	ldd r24,Z+13
	sts g_v,r24
	.loc 3 1255 0
	st Z,__zero_reg__
	.loc 3 1256 0
	ldi r24,lo8(-111)
	std Z+4,r24
	.loc 3 1257 0
	std Z+2,__zero_reg__
	.loc 3 1258 0
	ldd r24,Z+3
	andi r24,lo8(-64)
	std Z+3,r24
	.loc 3 1259 0
	movw r24,r16
	call sboxnet_send_msg
.LVL487:
	.loc 3 1261 0
	ldi r24,lo8(g_dev_state)
	ldi r25,hi8(g_dev_state)
	sbiw r24,32
	brsh .L306
	lds r24,g_dev_state
	andi r24,lo8(-9)
	sts g_dev_state,r24
.LBE672:
.LBE671:
.LBE668:
.LBE667:
	.loc 3 1315 0
	ldi r24,lo8(1)
	rjmp .L301
.L306:
.LBB682:
.LBB680:
.LBB679:
.LBB678:
.LBB673:
	.loc 3 1261 0
	in r25,__SREG__
.LVL488:
.LBB674:
.LBB675:
	.loc 5 50 0
/* #APP */
 ;  50 "c:\program files (x86)\atmel\studio\7.0\toolchain\avr8\avr8-gnu-toolchain\avr\include\util\atomic.h" 1
	cli
 ;  0 "" 2
.LVL489:
/* #NOAPP */
.LBE675:
.LBE674:
	.loc 3 1261 0
	lds r24,g_dev_state
	andi r24,lo8(-9)
	sts g_dev_state,r24
.LVL490:
.LBB676:
.LBB677:
	.loc 5 70 0
	out __SREG__,r25
	.loc 5 71 0
.LVL491:
.LBE677:
.LBE676:
.LBE673:
.LBE678:
.LBE679:
.LBE680:
.LBE682:
	.loc 3 1315 0
	ldi r24,lo8(1)
	rjmp .L301
.LVL492:
.L304:
.LBB683:
.LBB681:
	.loc 3 1268 0
	ldi r30,lo8(g_v)
	ldi r31,hi8(g_v)
	ldd r24,Z+6
	std Y+6,r24
	.loc 3 1269 0
	ldd r24,Z+7
	tst r24
	breq .L307
	lds r24,g_v+6
	cpse r24,__zero_reg__
	rjmp .L308
	.loc 3 1271 0
	movw r30,r16
	st Z,__zero_reg__
	.loc 3 1272 0
	std Z+2,__zero_reg__
	.loc 3 1273 0
	ldd r24,Z+3
	andi r24,lo8(-64)
	ori r24,lo8(8)
	std Z+3,r24
	.loc 3 1274 0
	ldi r24,lo8(16)
	std Z+4,r24
	.loc 3 1275 0
	movw r24,r16
	call sboxnet_can_send_msg
.LVL493:
	tst r24
	breq .L309
	.loc 3 1276 0
	call bldr_random
.LVL494:
	andi r24,lo8(31)
	subi r24,lo8(-(10))
	ldi r30,lo8(g_v)
	ldi r31,hi8(g_v)
	std Z+6,r24
	.loc 3 1277 0
	ldd r24,Z+1
	ldd r25,Z+2
	ldd r26,Z+3
	ldd r27,Z+4
	movw r30,r16
	std Z+5,r24
	std Z+6,r25
	std Z+7,r26
	std Z+8,r27
	.loc 3 1278 0
	ldd r24,Y+4
	ldd r25,Y+5
	std Z+9,r24
	std Z+10,r25
	.loc 3 1279 0
	ldd r24,Y+2
	ldd r25,Y+3
	std Z+11,r24
	std Z+12,r25
	.loc 3 1280 0
	movw r24,r16
	call sboxnet_send_msg
.LVL495:
.LBE681:
.LBE683:
	.loc 3 1315 0
	ldi r24,lo8(1)
	rjmp .L301
.L307:
	ldi r24,lo8(1)
	rjmp .L301
.L308:
	ldi r24,lo8(1)
	rjmp .L301
.L309:
	ldi r24,lo8(1)
.L301:
/* epilogue start */
	.loc 3 1318 0
	adiw r28,9
	out __SP_L__,r28
	out __SP_H__,r29
	pop r29
	pop r28
	pop r17
	pop r16
.LVL496:
	ret
	.cfi_endproc
.LFE97:
	.size	_bldr_task, .-_bldr_task
	.section	.bootloader,"ax",@progbits
.global	bldr_start
	.type	bldr_start, @function
bldr_start:
.LFB99:
	.loc 3 1380 0
	.cfi_startproc
	push r28
.LCFI110:
	.cfi_def_cfa_offset 3
	.cfi_offset 28, -2
	push r29
.LCFI111:
	.cfi_def_cfa_offset 4
	.cfi_offset 29, -3
	push __zero_reg__
.LCFI112:
	.cfi_def_cfa_offset 5
	in r28,__SP_L__
	in r29,__SP_H__
.LCFI113:
	.cfi_def_cfa_register 28
/* prologue: function */
/* frame size = 1 */
/* stack size = 3 */
.L__stack_usage = 3
	.loc 3 1382 0
/* #APP */
 ;  1382 ".././bootloader-fw.c" 1
	wdr
 ;  0 "" 2
.LVL497:
/* #NOAPP */
.LBB694:
	.loc 3 1384 0
	.loc 3 1384 0
	ldi r24,lo8(-40)
	out __CCP__,r24
	.loc 3 1384 0
	ldi r18,lo8(1)
	sts 128,r18
.LBE694:
.LBB695:
.LBB696:
	.loc 3 1134 0
	ldi r26,0
	ldi r27,lo8(6)
	st X,__zero_reg__
	.loc 3 1136 0
	ldi r30,lo8(-80)
	ldi r31,0
	ldi r24,lo8(-1)
	st Z,r24
	.loc 3 1138 0
	ldi r25,lo8(16)
	adiw r26,16
	st X,r25
	.loc 3 1141 0
	ldi r26,lo8(32)
	ldi r27,lo8(6)
	st X,__zero_reg__
	.loc 3 1143 0
	st Z,r24
	.loc 3 1145 0
	adiw r26,16
	st X,r25
	.loc 3 1148 0
	ldi r26,lo8(64)
	ldi r27,lo8(6)
	st X,__zero_reg__
	.loc 3 1150 0
	st Z,r24
	.loc 3 1153 0
	adiw r26,16
	st X,r25
	.loc 3 1156 0
	ldi r26,lo8(96)
	ldi r27,lo8(6)
	st X,__zero_reg__
	.loc 3 1158 0
	st Z,r24
	.loc 3 1160 0
	adiw r26,16
	st X,r25
	.loc 3 1162 0
	ldi r26,lo8(-128)
	ldi r27,lo8(6)
	st X,__zero_reg__
	.loc 3 1163 0
	st Z,r24
	.loc 3 1164 0
	ldi r24,lo8(24)
	adiw r26,16
	st X,r24
	sbiw r26,16
	.loc 3 1167 0
	sts 178,r18
	.loc 3 1168 0
	ldi r24,lo8(3)
	sts 179,r24
	.loc 3 1173 0
	ldi r30,lo8(g_v)
	ldi r31,hi8(g_v)
	ldi r18,lo8(1)
	ldi r19,0
	std Z+26,r18
	std Z+27,r19
	.loc 3 1180 0
	adiw r26,1
	st X,r24
	sbiw r26,1
	.loc 3 1181 0
	adiw r26,6
	st X,r24
	.loc 3 1182 0
	std Z+10,__zero_reg__
	.loc 3 1183 0
	std Z+11,__zero_reg__
	.loc 3 1186 0
	sts g_dev_state,__zero_reg__
	.loc 3 1187 0
	sts g_dev_errflags,__zero_reg__
	.loc 3 1188 0
	sts g_dev_errflags2,__zero_reg__
.LBB697:
.LBB698:
	.loc 3 1070 0
	ldi r30,lo8(80)
	ldi r31,0
	ld r24,Z
	ori r24,lo8(2)
	st Z,r24
	.loc 3 1072 0
	lds r24,81
	.loc 3 1072 0
	sbrc r24,1
	rjmp .L315
	.loc 3 1072 0
	ldi r30,lo8(81)
	ldi r31,0
.L327:
	.loc 3 1073 0
/* #APP */
 ;  1073 ".././bootloader-fw.c" 1
	nop
 ;  0 "" 2
	.loc 3 1072 0
/* #NOAPP */
	ld r24,Z
	.loc 3 1072 0
	sbrs r24,1
	rjmp .L327
.L315:
.LVL498:
.LBB699:
	.loc 3 1076 0
	.loc 3 1076 0
	ldi r24,lo8(-40)
	out __CCP__,r24
	.loc 3 1076 0
	ldi r24,lo8(1)
	sts 64,r24
.LBE699:
	.loc 3 1078 0
	ldi r30,lo8(80)
	ldi r31,0
	ld r24,Z
	andi r24,lo8(-2)
	st Z,r24
	.loc 3 1081 0
	ldi r24,lo8(-53)
	std Z+2,r24
	.loc 3 1083 0
	ld r24,Z
	ori r24,lo8(8)
	st Z,r24
.LVL499:
	.loc 3 1089 0
	lds r24,81
	.loc 3 1089 0
	sbrc r24,3
	rjmp .L317
	ldi r24,lo8(-56)
	.loc 3 1089 0
	ldi r30,lo8(81)
	ldi r31,0
	rjmp .L318
.LVL500:
.L319:
	ld r25,Z
	.loc 3 1089 0
	sbrc r25,3
	rjmp .L317
.LVL501:
.L318:
	.loc 3 1093 0
/* #APP */
 ;  1093 ".././bootloader-fw.c" 1
	nop
 ;  0 "" 2
	.loc 3 1094 0
 ;  1094 ".././bootloader-fw.c" 1
	nop
 ;  0 "" 2
	.loc 3 1095 0
 ;  1095 ".././bootloader-fw.c" 1
	nop
 ;  0 "" 2
.LVL502:
/* #NOAPP */
	subi r24,lo8(-(-1))
.LVL503:
	.loc 3 1088 0
	brne .L319
	rjmp .L320
.LVL504:
.L321:
	.loc 3 1104 0
	ldi r30,lo8(81)
	ldi r31,0
.L326:
	.loc 3 1105 0
/* #APP */
 ;  1105 ".././bootloader-fw.c" 1
	nop
 ;  0 "" 2
	.loc 3 1104 0
/* #NOAPP */
	ld r24,Z
	.loc 3 1104 0
	sbrs r24,4
	rjmp .L326
.L325:
.LVL505:
.LBB700:
	.loc 3 1108 0
	.loc 3 1108 0
	ldi r24,lo8(-40)
	out __CCP__,r24
	.loc 3 1108 0
	ldi r24,lo8(4)
	sts 64,r24
.LBE700:
	.loc 3 1110 0
	ldi r30,lo8(80)
	ldi r31,0
	ld r24,Z
	andi r24,lo8(-3)
	st Z,r24
.LVL506:
.L320:
.LBE698:
.LBE697:
.LBB702:
	.loc 3 1205 0
	ldi r30,lo8(-49)
	ldi r31,lo8(1)
.L322:
	ld r24,Z
	.loc 3 1205 0
	tst r24
	brlt .L322
	.loc 3 1205 0
	ldi r30,lo8(-52)
	ldi r31,lo8(1)
	ld r24,Z
	ori r24,lo8(8)
	st Z,r24
	.loc 3 1205 0
	lds r24,4865
	lds r25,4865+1
	lds r26,4865+2
	lds r27,4865+3
.LBE702:
	.loc 3 1205 0
	ldi r16,lo8(g_v)
	ldi r17,hi8(g_v)
	movw r30,r16
	std Z+1,r24
	std Z+2,r25
	std Z+3,r26
	std Z+4,r27
	.loc 3 1207 0
	ldi r18,lo8(-1)
	st Z,r18
	.loc 3 1210 0
	std Z+16,__zero_reg__
	std Z+17,__zero_reg__
	.loc 3 1211 0
	std Z+18,__zero_reg__
	std Z+19,__zero_reg__
	.loc 3 1212 0
	std Z+20,__zero_reg__
	std Z+21,__zero_reg__
	.loc 3 1215 0
	std Z+24,r24
	std Z+25,r25
	.loc 3 1217 0
	call bldr_random
.LVL507:
	movw r30,r16
	std Z+5,r24
.LBE696:
.LBE695:
	.loc 3 1397 0
	std Z+7,__zero_reg__
.LBB705:
	.loc 3 1401 0
	ldi r30,lo8(-49)
	ldi r31,lo8(1)
.L323:
	.loc 3 1401 0 is_stmt 0 discriminator 1
	ld r24,Z
	.loc 3 1401 0 is_stmt 1 discriminator 1
	tst r24
	brlt .L323
	.loc 3 1401 0 discriminator 2
	ldi r30,lo8(-52)
	ldi r31,lo8(1)
	ld r24,Z
	ori r24,lo8(8)
	st Z,r24
	.loc 3 1401 0 discriminator 2
	lds r24,4864
.LBE705:
	.loc 3 1401 0 discriminator 2
	std Y+1,r24
	.loc 3 1402 0 discriminator 2
	ldd r24,Y+1
	cpse r24,__zero_reg__
	rjmp .L324
.LVL508:
.LBB706:
	.loc 3 1404 0
	.loc 3 1404 0
	ldi r24,lo8(-40)
	out __CCP__,r24
	.loc 3 1404 0
	ldi r24,lo8(7)
	sts 162,r24
.LBE706:
	.loc 3 1406 0
/* #APP */
 ;  1406 ".././bootloader-fw.c" 1
	jmp  0

 ;  0 "" 2
.LVL509:
/* #NOAPP */
.L324:
	.loc 3 1411 0
	ldi r24,lo8(1)
	call bldr_main
.LVL510:
.L317:
.LBB707:
.LBB704:
.LBB703:
.LBB701:
	.loc 3 1100 0
	ldi r30,lo8(80)
	ldi r31,0
	ldi r24,lo8(-62)
	std Z+5,r24
	.loc 3 1102 0
	ld r24,Z
	ori r24,lo8(16)
	st Z,r24
	.loc 3 1104 0
	lds r24,81
	.loc 3 1104 0
	sbrs r24,4
	rjmp .L321
	rjmp .L325
.LBE701:
.LBE703:
.LBE704:
.LBE707:
	.cfi_endproc
.LFE99:
	.size	bldr_start, .-bldr_start
	.section	.bldrapp
	.type	_bldr_activate, @function
_bldr_activate:
.LFB100:
	.loc 3 1422 0
	.cfi_startproc
/* prologue: function */
/* frame size = 0 */
/* stack size = 0 */
.L__stack_usage = 0
	.loc 3 1424 0
/* #APP */
 ;  1424 ".././bootloader-fw.c" 1
	cli
 ;  0 "" 2
	.loc 3 1426 0
/* #NOAPP */
	ldi r22,lo8(-1)
	ldi r24,0
	ldi r25,lo8(3)
	call sbldr_e2prom_write
.LVL511:
	.loc 3 1428 0
	ldi r24,0
	call bldr_main
.LVL512:
	.cfi_endproc
.LFE100:
	.size	_bldr_activate, .-_bldr_activate
	.section	.bldrcrc,"ax",@progbits
	.type	bldr_crc_section, @function
bldr_crc_section:
.LFB101:
	.loc 3 1438 0
	.cfi_startproc
/* prologue: naked */
/* frame size = 0 */
/* stack size = 0 */
.L__stack_usage = 0
	.loc 3 1439 0
/* #APP */
 ;  1439 ".././bootloader-fw.c" 1
	bldr_crc:  .word 0xffff

 ;  0 "" 2
/* epilogue start */
	.loc 3 1442 0
/* #NOAPP */
	.cfi_endproc
.LFE101:
	.size	bldr_crc_section, .-bldr_crc_section
	.section	.bldrstatic,"ax",@progbits
	.type	xsbldr_prog_page, @function
xsbldr_prog_page:
.LFB102:
	.loc 3 1490 0
	.cfi_startproc
.LVL513:
	push r7
.LCFI114:
	.cfi_def_cfa_offset 3
	.cfi_offset 7, -2
	push r8
.LCFI115:
	.cfi_def_cfa_offset 4
	.cfi_offset 8, -3
	push r9
.LCFI116:
	.cfi_def_cfa_offset 5
	.cfi_offset 9, -4
	push r10
.LCFI117:
	.cfi_def_cfa_offset 6
	.cfi_offset 10, -5
	push r11
.LCFI118:
	.cfi_def_cfa_offset 7
	.cfi_offset 11, -6
	push r12
.LCFI119:
	.cfi_def_cfa_offset 8
	.cfi_offset 12, -7
	push r13
.LCFI120:
	.cfi_def_cfa_offset 9
	.cfi_offset 13, -8
	push r14
.LCFI121:
	.cfi_def_cfa_offset 10
	.cfi_offset 14, -9
	push r15
.LCFI122:
	.cfi_def_cfa_offset 11
	.cfi_offset 15, -10
	push r16
.LCFI123:
	.cfi_def_cfa_offset 12
	.cfi_offset 16, -11
	push r17
.LCFI124:
	.cfi_def_cfa_offset 13
	.cfi_offset 17, -12
	push r28
.LCFI125:
	.cfi_def_cfa_offset 14
	.cfi_offset 28, -13
	push r29
.LCFI126:
	.cfi_def_cfa_offset 15
	.cfi_offset 29, -14
/* prologue: function */
/* frame size = 0 */
/* stack size = 13 */
.L__stack_usage = 13
	movw r12,r24
	movw r14,r22
	mov r7,r20
	.loc 3 1491 0
	ldi r30,lo8(-49)
	ldi r31,lo8(1)
.L335:
	.loc 3 1491 0 is_stmt 0 discriminator 1
	ld r25,Z
	.loc 3 1491 0 is_stmt 1 discriminator 1
	tst r25
	brlt .L335
	.loc 3 1492 0
	clr r12
.LVL514:
.LBB708:
	.loc 3 1494 0
	in r24,__SREG__
.LVL515:
.LBB709:
.LBB710:
	.loc 5 50 0
/* #APP */
 ;  50 "c:\program files (x86)\atmel\studio\7.0\toolchain\avr8\avr8-gnu-toolchain\avr\include\util\atomic.h" 1
	cli
 ;  0 "" 2
.LVL516:
/* #NOAPP */
.LBE710:
.LBE709:
	.loc 3 1495 0
	ldi r26,lo8(-64)
	ldi r27,lo8(1)
	ldi r25,lo8(38)
	adiw r26,10
	st X,r25
	sbiw r26,10
	.loc 3 1496 0
	ldi r20,lo8(1)
	ldi r21,0
.LVL517:
	ldi r18,lo8(-40)
	ldi r19,0
	movw r30,r12
/* #APP */
 ;  1496 ".././bootloader-fw.c" 1
	out 52,r18
sts 459,r20

 ;  0 "" 2
	.loc 3 1497 0
/* #NOAPP */
	adiw r26,10
	st X,__zero_reg__
.LVL518:
.LBB711:
.LBB712:
	.loc 5 70 0
	out __SREG__,r24
	.loc 5 71 0
.LVL519:
.LBE712:
.LBE711:
.LBE708:
	.loc 3 1499 0
	ldi r30,lo8(-49)
	ldi r31,lo8(1)
.L336:
	.loc 3 1499 0 is_stmt 0 discriminator 1
	ld r24,Z
	.loc 3 1499 0 is_stmt 1 discriminator 1
	tst r24
	brlt .L336
	movw r10,r14
	inc r11
	movw r16,r10
	.loc 3 1499 0 is_stmt 0
	movw r26,r14
.LBB713:
.LBB714:
.LBB715:
	.loc 3 1512 0 is_stmt 1
	ldi r28,lo8(-64)
	ldi r29,lo8(1)
	mov __tmp_reg__,r31
	ldi r31,lo8(35)
	mov r8,r31
	mov r31,__tmp_reg__
	movw r18,r12
	sub r18,r14
	sbc r19,r15
	.loc 3 1513 0
	ldi r22,lo8(-99)
	ldi r23,0
.LVL520:
.L339:
.LBE715:
	.loc 3 1505 0
	tst r7
	breq .L337
.LVL521:
.LBB720:
	.loc 3 1506 0
	movw r30,r26
/* #APP */
 ;  1506 ".././bootloader-fw.c" 1
	lpm r24, Z+
	lpm r25, Z
	
 ;  0 "" 2
.LVL522:
/* #NOAPP */
	mov r9,r25
.LVL523:
.LBE720:
	rjmp .L338
.LVL524:
.L337:
	.loc 3 1508 0
	ld r24,X
	adiw r26,1
	ld r9,X
	sbiw r26,1
.LVL525:
.L338:
.LBB721:
	.loc 3 1511 0
	in r25,__SREG__
.LVL526:
.LBB716:
.LBB717:
	.loc 5 50 0
/* #APP */
 ;  50 "c:\program files (x86)\atmel\studio\7.0\toolchain\avr8\avr8-gnu-toolchain\avr\include\util\atomic.h" 1
	cli
 ;  0 "" 2
.LVL527:
/* #NOAPP */
.LBE717:
.LBE716:
	.loc 3 1512 0
	std Y+10,r8
	movw r20,r18
	.loc 3 1513 0
	movw r30,r18
	add r30,r26
	adc r31,r27
/* #APP */
 ;  1513 ".././bootloader-fw.c" 1
	mov r0, r24
mov r1, r9
out 52,r22
spm
clr r1

 ;  0 "" 2
	.loc 3 1514 0
/* #NOAPP */
	std Y+10,__zero_reg__
.LVL528:
.LBB718:
.LBB719:
	.loc 5 70 0
	out __SREG__,r25
	.loc 5 71 0
.LVL529:
	adiw r26,2
.LVL530:
.LBE719:
.LBE718:
.LBE721:
.LBE714:
	.loc 3 1501 0
	cp r16,r26
	cpc r17,r27
	brne .L339
.LBE713:
.LBB722:
	.loc 3 1518 0
	in r24,__SREG__
.LVL531:
.LBB723:
.LBB724:
	.loc 5 50 0
/* #APP */
 ;  50 "c:\program files (x86)\atmel\studio\7.0\toolchain\avr8\avr8-gnu-toolchain\avr\include\util\atomic.h" 1
	cli
 ;  0 "" 2
.LVL532:
/* #NOAPP */
.LBE724:
.LBE723:
	.loc 3 1522 0
	ldi r26,lo8(-64)
	ldi r27,lo8(1)
.LVL533:
	ldi r25,lo8(37)
	adiw r26,10
	st X,r25
	sbiw r26,10
	.loc 3 1524 0
	ldi r18,lo8(-99)
	ldi r19,0
	movw r30,r12
/* #APP */
 ;  1524 ".././bootloader-fw.c" 1
	out 52,r18
spm

 ;  0 "" 2
	.loc 3 1525 0
/* #NOAPP */
	adiw r26,10
	st X,__zero_reg__
.LVL534:
.LBB725:
.LBB726:
	.loc 5 70 0
	out __SREG__,r24
	.loc 5 71 0
.LVL535:
.LBE726:
.LBE725:
.LBE722:
	.loc 3 1527 0
	ldi r30,lo8(-49)
	ldi r31,lo8(1)
.L340:
	.loc 3 1527 0 is_stmt 0 discriminator 1
	ld r24,Z
	.loc 3 1527 0 is_stmt 1 discriminator 1
	tst r24
	brlt .L340
.L346:
.LVL536:
.LBB727:
.LBB728:
	.loc 3 1533 0
	tst r7
	breq .L341
.LVL537:
.LBB729:
	.loc 3 1534 0
	movw r30,r14
/* #APP */
 ;  1534 ".././bootloader-fw.c" 1
	lpm r24, Z
	
 ;  0 "" 2
.LVL538:
/* #NOAPP */
.LBE729:
	rjmp .L342
.LVL539:
.L341:
	.loc 3 1536 0
	movw r30,r14
	ld r24,Z
.LVL540:
.L342:
.LBB730:
	.loc 3 1538 0
	movw r30,r14
	add r30,r20
	adc r31,r21
.LVL541:
/* #APP */
 ;  1538 ".././bootloader-fw.c" 1
	lpm r30, Z
	
 ;  0 "" 2
.LVL542:
/* #NOAPP */
.LBE730:
	.loc 3 1538 0
	cpse r24,r30
	rjmp .L345
.LVL543:
.LBE728:
	.loc 3 1531 0 discriminator 2
	ldi r31,-1
	sub r14,r31
	sbc r15,r31
.LVL544:
	.loc 3 1531 0 discriminator 2
	cp r14,r10
	cpc r15,r11
	brne .L346
.LBE727:
	.loc 3 1530 0
	ldi r24,0
.LVL545:
.LBB732:
	rjmp .L343
.LVL546:
.L345:
.LBB731:
	.loc 3 1539 0
	ldi r24,lo8(1)
.LVL547:
.L343:
/* epilogue start */
.LBE731:
.LBE732:
	.loc 3 1544 0
	pop r29
	pop r28
	pop r17
	pop r16
	pop r15
	pop r14
.LVL548:
	pop r13
	pop r12
.LVL549:
	pop r11
	pop r10
	pop r9
	pop r8
	pop r7
.LVL550:
	ret
	.cfi_endproc
.LFE102:
	.size	xsbldr_prog_page, .-xsbldr_prog_page
	.type	xsbldr_e2prom_write, @function
xsbldr_e2prom_write:
.LFB103:
	.loc 3 1550 0
	.cfi_startproc
.LVL551:
/* prologue: function */
/* frame size = 0 */
/* stack size = 0 */
.L__stack_usage = 0
	.loc 3 1551 0
	ldi r30,lo8(-49)
	ldi r31,lo8(1)
.L353:
	.loc 3 1551 0 is_stmt 0 discriminator 1
	ld r18,Z
	.loc 3 1551 0 is_stmt 1 discriminator 1
	tst r18
	brlt .L353
.LBB733:
	.loc 3 1552 0
	in r20,__SREG__
.LVL552:
.LBB734:
.LBB735:
	.loc 5 50 0
/* #APP */
 ;  50 "c:\program files (x86)\atmel\studio\7.0\toolchain\avr8\avr8-gnu-toolchain\avr\include\util\atomic.h" 1
	cli
 ;  0 "" 2
.LVL553:
/* #NOAPP */
.LBE735:
.LBE734:
.LBB736:
	.loc 3 1553 0
	ldi r30,lo8(-49)
	ldi r31,lo8(1)
.L354:
	.loc 3 1553 0 is_stmt 0 discriminator 1
	ld r18,Z
	.loc 3 1553 0 is_stmt 1 discriminator 1
	tst r18
	brlt .L354
	.loc 3 1553 0 discriminator 2
	ldi r30,lo8(-52)
	ldi r31,lo8(1)
	ld r18,Z
	ori r18,lo8(8)
	st Z,r18
	.loc 3 1553 0 discriminator 2
	mov r18,r24
	mov r19,r25
	.loc 3 1553 0 discriminator 2
	movw r30,r18
	subi r31,-16
.LBE736:
	.loc 3 1553 0 discriminator 2
	ld r25,Z
	cp r25,r22
	breq .L355
	.loc 3 1554 0
	ldi r30,lo8(-64)
	ldi r31,lo8(1)
	ldd r25,Z+12
	andi r25,lo8(-9)
	std Z+12,r25
	.loc 3 1556 0
	ldi r25,lo8(54)
	std Z+10,r25
.LVL554:
.LBB737:
	.loc 3 1557 0
	.loc 3 1557 0
	ldi r25,lo8(-40)
	out __CCP__,r25
	.loc 3 1557 0
	ldi r25,lo8(1)
	sts 459,r25
.LBE737:
	.loc 3 1558 0
	ldi r30,lo8(-49)
	ldi r31,lo8(1)
.L356:
	.loc 3 1558 0 is_stmt 0 discriminator 1
	ld r25,Z
	.loc 3 1558 0 is_stmt 1 discriminator 1
	tst r25
	brlt .L356
	.loc 3 1560 0
	ldi r30,lo8(-64)
	ldi r31,lo8(1)
	ldi r25,lo8(51)
	std Z+10,r25
	.loc 3 1561 0
	st Z,r24
	.loc 3 1562 0
	std Z+1,r19
	.loc 3 1563 0
	std Z+2,__zero_reg__
	.loc 3 1564 0
	std Z+4,r22
	.loc 3 1566 0
	ldi r24,lo8(53)
.LVL555:
	std Z+10,r24
.LVL556:
.LBB738:
	.loc 3 1567 0
	.loc 3 1567 0
	ldi r24,lo8(-40)
	out __CCP__,r24
	.loc 3 1567 0
	ldi r24,lo8(1)
	sts 459,r24
.LBE738:
	.loc 3 1569 0
	std Z+10,__zero_reg__
.LVL557:
.L355:
.LBB739:
.LBB740:
	.loc 5 70 0
	out __SREG__,r20
	.loc 5 71 0
.LVL558:
.LBE740:
.LBE739:
.LBE733:
	.loc 3 1572 0
	ldi r30,lo8(-49)
	ldi r31,lo8(1)
.L357:
	.loc 3 1572 0 is_stmt 0 discriminator 1
	ld r24,Z
	.loc 3 1572 0 is_stmt 1 discriminator 1
	tst r24
	brlt .L357
/* epilogue start */
	.loc 3 1573 0
	ret
	.cfi_endproc
.LFE103:
	.size	xsbldr_e2prom_write, .-xsbldr_e2prom_write
	.type	xsbldr_finish_fwup, @function
xsbldr_finish_fwup:
.LFB104:
	.loc 3 1579 0
	.cfi_startproc
.LVL559:
/* prologue: function */
/* frame size = 0 */
/* stack size = 0 */
.L__stack_usage = 0
	.loc 3 1580 0
/* #APP */
 ;  1580 ".././bootloader-fw.c" 1
	cli
 ;  0 "" 2
.LVL560:
	.loc 3 1584 0
/* #NOAPP */
	cpse r24,__zero_reg__
	rjmp .L363
	ldi r28,0
	ldi r29,lo8(-16)
.LVL561:
.L364:
.LBB741:
	.loc 3 1588 0 discriminator 1
	movw r22,r28
	subi r23,-16
.LVL562:
	ldi r20,lo8(1)
	movw r24,r28
	call sbldr_prog_page
.LVL563:
	.loc 3 1589 0 discriminator 1
	inc r29
.LVL564:
	rjmp .L364
.LVL565:
.L363:
.LBE741:
	.loc 3 1600 0
	ldi r22,0
	ldi r24,0
	ldi r25,lo8(3)
.LVL566:
	call sbldr_e2prom_write
.LVL567:
.LBB742:
	.loc 3 1603 0
	.loc 3 1603 0
	ldi r24,lo8(-40)
	out __CCP__,r24
	.loc 3 1603 0
	ldi r24,lo8(1)
	sts 121,r24
.L365:
	rjmp .L365
.LBE742:
	.cfi_endproc
.LFE104:
	.size	xsbldr_finish_fwup, .-xsbldr_finish_fwup
	.section	.bldrstatvec,"ax",@progbits
	.type	sbldr_static_vectors, @function
sbldr_static_vectors:
.LFB105:
	.loc 3 1613 0
	.cfi_startproc
/* prologue: naked */
/* frame size = 0 */
/* stack size = 0 */
.L__stack_usage = 0
	.loc 3 1614 0
/* #APP */
 ;  1614 ".././bootloader-fw.c" 1
	0: rjmp 0b
.global sbldr_e2prom_write
sbldr_e2prom_write: rjmp xsbldr_e2prom_write
sbldr_finish_fwup:  rjmp xsbldr_finish_fwup
sbldr_prog_page:    rjmp xsbldr_prog_page

 ;  0 "" 2
/* epilogue start */
	.loc 3 1621 0
/* #NOAPP */
	.cfi_endproc
.LFE105:
	.size	sbldr_static_vectors, .-sbldr_static_vectors
	.comm	g_v,371,1
.global	g_dev_errflags2
	.section	.bss.g_dev_errflags2,"aw",@nobits
	.type	g_dev_errflags2, @object
	.size	g_dev_errflags2, 1
g_dev_errflags2:
	.zero	1
.global	g_dev_errflags
	.section	.bss.g_dev_errflags,"aw",@nobits
	.type	g_dev_errflags, @object
	.size	g_dev_errflags, 1
g_dev_errflags:
	.zero	1
.global	g_dev_state
	.section	.bss.g_dev_state,"aw",@nobits
	.type	g_dev_state, @object
	.size	g_dev_state, 1
g_dev_state:
	.zero	1
	.text
.Letext0:
	.file 8 "c:\\program files (x86)\\atmel\\studio\\7.0\\toolchain\\avr8\\avr8-gnu-toolchain\\avr\\include\\stdint.h"
	.file 9 "C:\\Program Files (x86)\\Atmel\\Studio\\7.0\\Packs\\Atmel\\XMEGAA_DFP\\1.2.141\\include/avr/iox64a4u.h"
	.file 10 ".././sboxnet-struct.h"
	.file 11 ".././sboxnet.h"